ARM GAS  C:\Users\User\AppData\Local\Temp\cc5PRTKJ.s 			page 1


   1              		.syntax unified
   2              		.cpu cortex-m0
   3              		.fpu softvfp
   4              		.eabi_attribute 20, 1
   5              		.eabi_attribute 21, 1
   6              		.eabi_attribute 23, 3
   7              		.eabi_attribute 24, 1
   8              		.eabi_attribute 25, 1
   9              		.eabi_attribute 26, 1
  10              		.eabi_attribute 30, 1
  11              		.eabi_attribute 34, 0
  12              		.eabi_attribute 18, 4
  13              		.thumb
  14              		.syntax unified
  15              		.file	"cyfitter_cfg.c"
  16              		.text
  17              	.Ltext0:
  18              		.cfi_sections	.debug_frame
  19              		.section	.text.cfg_write_bytes32,"ax",%progbits
  20              		.align	2
  21              		.code	16
  22              		.thumb_func
  23              		.type	cfg_write_bytes32, %function
  24              	cfg_write_bytes32:
  25              	.LFB5:
  26              		.file 1 "Generated_Source\\PSoC4\\cyfitter_cfg.c"
   1:Generated_Source\PSoC4/cyfitter_cfg.c **** 
   2:Generated_Source\PSoC4/cyfitter_cfg.c **** /*******************************************************************************
   3:Generated_Source\PSoC4/cyfitter_cfg.c **** * File Name: cyfitter_cfg.c
   4:Generated_Source\PSoC4/cyfitter_cfg.c **** * 
   5:Generated_Source\PSoC4/cyfitter_cfg.c **** * PSoC Creator  4.2
   6:Generated_Source\PSoC4/cyfitter_cfg.c **** *
   7:Generated_Source\PSoC4/cyfitter_cfg.c **** * Description:
   8:Generated_Source\PSoC4/cyfitter_cfg.c **** * This file contains device initialization code.
   9:Generated_Source\PSoC4/cyfitter_cfg.c **** * Except for the user defined sections in CyClockStartupError(), this file should not be modified.
  10:Generated_Source\PSoC4/cyfitter_cfg.c **** * This file is automatically generated by PSoC Creator.
  11:Generated_Source\PSoC4/cyfitter_cfg.c **** *
  12:Generated_Source\PSoC4/cyfitter_cfg.c **** ********************************************************************************
  13:Generated_Source\PSoC4/cyfitter_cfg.c **** * Copyright (c) 2007-2018 Cypress Semiconductor.  All rights reserved.
  14:Generated_Source\PSoC4/cyfitter_cfg.c **** * You may use this file only in accordance with the license, terms, conditions, 
  15:Generated_Source\PSoC4/cyfitter_cfg.c **** * disclaimers, and limitations in the end user license agreement accompanying 
  16:Generated_Source\PSoC4/cyfitter_cfg.c **** * the software package with which this file was provided.
  17:Generated_Source\PSoC4/cyfitter_cfg.c **** ********************************************************************************/
  18:Generated_Source\PSoC4/cyfitter_cfg.c **** 
  19:Generated_Source\PSoC4/cyfitter_cfg.c **** #include <string.h>
  20:Generated_Source\PSoC4/cyfitter_cfg.c **** #include "cytypes.h"
  21:Generated_Source\PSoC4/cyfitter_cfg.c **** #include "cydevice_trm.h"
  22:Generated_Source\PSoC4/cyfitter_cfg.c **** #include "cyfitter.h"
  23:Generated_Source\PSoC4/cyfitter_cfg.c **** #include "CyLib.h"
  24:Generated_Source\PSoC4/cyfitter_cfg.c **** #include "CyLFClk.h"
  25:Generated_Source\PSoC4/cyfitter_cfg.c **** #include "cyfitter_cfg.h"
  26:Generated_Source\PSoC4/cyfitter_cfg.c **** 
  27:Generated_Source\PSoC4/cyfitter_cfg.c **** 
  28:Generated_Source\PSoC4/cyfitter_cfg.c **** #if defined(__GNUC__) || defined(__ARMCC_VERSION)
  29:Generated_Source\PSoC4/cyfitter_cfg.c ****     #define CYPACKED 
  30:Generated_Source\PSoC4/cyfitter_cfg.c ****     #define CYPACKED_ATTR __attribute__ ((packed))
  31:Generated_Source\PSoC4/cyfitter_cfg.c ****     #define CYALIGNED __attribute__ ((aligned))
ARM GAS  C:\Users\User\AppData\Local\Temp\cc5PRTKJ.s 			page 2


  32:Generated_Source\PSoC4/cyfitter_cfg.c ****     #define CY_CFG_UNUSED __attribute__ ((unused))
  33:Generated_Source\PSoC4/cyfitter_cfg.c ****     #ifndef CY_CFG_SECTION
  34:Generated_Source\PSoC4/cyfitter_cfg.c ****         #define CY_CFG_SECTION __attribute__ ((section(".psocinit")))
  35:Generated_Source\PSoC4/cyfitter_cfg.c ****     #endif
  36:Generated_Source\PSoC4/cyfitter_cfg.c ****     
  37:Generated_Source\PSoC4/cyfitter_cfg.c ****     #if defined(__ARMCC_VERSION)
  38:Generated_Source\PSoC4/cyfitter_cfg.c ****         #define CY_CFG_MEMORY_BARRIER() __memory_changed()
  39:Generated_Source\PSoC4/cyfitter_cfg.c ****     #else
  40:Generated_Source\PSoC4/cyfitter_cfg.c ****         #define CY_CFG_MEMORY_BARRIER() __sync_synchronize()
  41:Generated_Source\PSoC4/cyfitter_cfg.c ****     #endif
  42:Generated_Source\PSoC4/cyfitter_cfg.c ****     
  43:Generated_Source\PSoC4/cyfitter_cfg.c **** #elif defined(__ICCARM__)
  44:Generated_Source\PSoC4/cyfitter_cfg.c ****     #include <intrinsics.h>
  45:Generated_Source\PSoC4/cyfitter_cfg.c **** 
  46:Generated_Source\PSoC4/cyfitter_cfg.c ****     #define CYPACKED __packed
  47:Generated_Source\PSoC4/cyfitter_cfg.c ****     #define CYPACKED_ATTR 
  48:Generated_Source\PSoC4/cyfitter_cfg.c ****     #define CYALIGNED _Pragma("data_alignment=4")
  49:Generated_Source\PSoC4/cyfitter_cfg.c ****     #define CY_CFG_UNUSED _Pragma("diag_suppress=Pe177")
  50:Generated_Source\PSoC4/cyfitter_cfg.c ****     #define CY_CFG_SECTION _Pragma("location=\".psocinit\"")
  51:Generated_Source\PSoC4/cyfitter_cfg.c ****     
  52:Generated_Source\PSoC4/cyfitter_cfg.c ****     #define CY_CFG_MEMORY_BARRIER() __DMB()
  53:Generated_Source\PSoC4/cyfitter_cfg.c ****     
  54:Generated_Source\PSoC4/cyfitter_cfg.c **** #else
  55:Generated_Source\PSoC4/cyfitter_cfg.c ****     #error Unsupported toolchain
  56:Generated_Source\PSoC4/cyfitter_cfg.c **** #endif
  57:Generated_Source\PSoC4/cyfitter_cfg.c **** 
  58:Generated_Source\PSoC4/cyfitter_cfg.c **** #ifndef CYCODE
  59:Generated_Source\PSoC4/cyfitter_cfg.c ****     #define CYCODE
  60:Generated_Source\PSoC4/cyfitter_cfg.c **** #endif
  61:Generated_Source\PSoC4/cyfitter_cfg.c **** #ifndef CYDATA
  62:Generated_Source\PSoC4/cyfitter_cfg.c ****     #define CYDATA
  63:Generated_Source\PSoC4/cyfitter_cfg.c **** #endif
  64:Generated_Source\PSoC4/cyfitter_cfg.c **** #ifndef CYFAR
  65:Generated_Source\PSoC4/cyfitter_cfg.c ****     #define CYFAR
  66:Generated_Source\PSoC4/cyfitter_cfg.c **** #endif
  67:Generated_Source\PSoC4/cyfitter_cfg.c **** #ifndef CYXDATA
  68:Generated_Source\PSoC4/cyfitter_cfg.c ****     #define CYXDATA
  69:Generated_Source\PSoC4/cyfitter_cfg.c **** #endif
  70:Generated_Source\PSoC4/cyfitter_cfg.c **** 
  71:Generated_Source\PSoC4/cyfitter_cfg.c **** 
  72:Generated_Source\PSoC4/cyfitter_cfg.c **** CY_CFG_UNUSED
  73:Generated_Source\PSoC4/cyfitter_cfg.c **** static void CYMEMZERO(void *s, size_t n);
  74:Generated_Source\PSoC4/cyfitter_cfg.c **** CY_CFG_UNUSED
  75:Generated_Source\PSoC4/cyfitter_cfg.c **** static void CYMEMZERO(void *s, size_t n)
  76:Generated_Source\PSoC4/cyfitter_cfg.c **** {
  77:Generated_Source\PSoC4/cyfitter_cfg.c **** 	(void)memset(s, 0, n);
  78:Generated_Source\PSoC4/cyfitter_cfg.c **** }
  79:Generated_Source\PSoC4/cyfitter_cfg.c **** CY_CFG_UNUSED
  80:Generated_Source\PSoC4/cyfitter_cfg.c **** static void CYCONFIGCPY(void *dest, const void *src, size_t n);
  81:Generated_Source\PSoC4/cyfitter_cfg.c **** CY_CFG_UNUSED
  82:Generated_Source\PSoC4/cyfitter_cfg.c **** static void CYCONFIGCPY(void *dest, const void *src, size_t n)
  83:Generated_Source\PSoC4/cyfitter_cfg.c **** {
  84:Generated_Source\PSoC4/cyfitter_cfg.c **** 	(void)memcpy(dest, src, n);
  85:Generated_Source\PSoC4/cyfitter_cfg.c **** }
  86:Generated_Source\PSoC4/cyfitter_cfg.c **** CY_CFG_UNUSED
  87:Generated_Source\PSoC4/cyfitter_cfg.c **** static void CYCONFIGCPYCODE(void *dest, const void *src, size_t n);
  88:Generated_Source\PSoC4/cyfitter_cfg.c **** CY_CFG_UNUSED
ARM GAS  C:\Users\User\AppData\Local\Temp\cc5PRTKJ.s 			page 3


  89:Generated_Source\PSoC4/cyfitter_cfg.c **** static void CYCONFIGCPYCODE(void *dest, const void *src, size_t n)
  90:Generated_Source\PSoC4/cyfitter_cfg.c **** {
  91:Generated_Source\PSoC4/cyfitter_cfg.c **** 	(void)memcpy(dest, src, n);
  92:Generated_Source\PSoC4/cyfitter_cfg.c **** }
  93:Generated_Source\PSoC4/cyfitter_cfg.c **** 
  94:Generated_Source\PSoC4/cyfitter_cfg.c **** 
  95:Generated_Source\PSoC4/cyfitter_cfg.c **** 
  96:Generated_Source\PSoC4/cyfitter_cfg.c **** 
  97:Generated_Source\PSoC4/cyfitter_cfg.c **** /* Clock startup error codes                                                   */
  98:Generated_Source\PSoC4/cyfitter_cfg.c **** #define CYCLOCKSTART_NO_ERROR    0u
  99:Generated_Source\PSoC4/cyfitter_cfg.c **** #define CYCLOCKSTART_XTAL_ERROR  1u
 100:Generated_Source\PSoC4/cyfitter_cfg.c **** #define CYCLOCKSTART_32KHZ_ERROR 2u
 101:Generated_Source\PSoC4/cyfitter_cfg.c **** #define CYCLOCKSTART_PLL_ERROR   3u
 102:Generated_Source\PSoC4/cyfitter_cfg.c **** #define CYCLOCKSTART_FLL_ERROR   4u
 103:Generated_Source\PSoC4/cyfitter_cfg.c **** #define CYCLOCKSTART_WCO_ERROR   5u
 104:Generated_Source\PSoC4/cyfitter_cfg.c **** 
 105:Generated_Source\PSoC4/cyfitter_cfg.c **** 
 106:Generated_Source\PSoC4/cyfitter_cfg.c **** #ifdef CY_NEED_CYCLOCKSTARTUPERROR
 107:Generated_Source\PSoC4/cyfitter_cfg.c **** /*******************************************************************************
 108:Generated_Source\PSoC4/cyfitter_cfg.c **** * Function Name: CyClockStartupError
 109:Generated_Source\PSoC4/cyfitter_cfg.c **** ********************************************************************************
 110:Generated_Source\PSoC4/cyfitter_cfg.c **** * Summary:
 111:Generated_Source\PSoC4/cyfitter_cfg.c **** *  If an error is encountered during clock configuration (crystal startup error,
 112:Generated_Source\PSoC4/cyfitter_cfg.c **** *  PLL lock error, etc.), the system will end up here.  Unless reimplemented by
 113:Generated_Source\PSoC4/cyfitter_cfg.c **** *  the customer, this function will stop in an infinite loop.
 114:Generated_Source\PSoC4/cyfitter_cfg.c **** *
 115:Generated_Source\PSoC4/cyfitter_cfg.c **** * Parameters:
 116:Generated_Source\PSoC4/cyfitter_cfg.c **** *   void
 117:Generated_Source\PSoC4/cyfitter_cfg.c **** *
 118:Generated_Source\PSoC4/cyfitter_cfg.c **** * Return:
 119:Generated_Source\PSoC4/cyfitter_cfg.c **** *   void
 120:Generated_Source\PSoC4/cyfitter_cfg.c **** *
 121:Generated_Source\PSoC4/cyfitter_cfg.c **** *******************************************************************************/
 122:Generated_Source\PSoC4/cyfitter_cfg.c **** CY_CFG_UNUSED
 123:Generated_Source\PSoC4/cyfitter_cfg.c **** static void CyClockStartupError(uint8 errorCode);
 124:Generated_Source\PSoC4/cyfitter_cfg.c **** CY_CFG_UNUSED
 125:Generated_Source\PSoC4/cyfitter_cfg.c **** static void CyClockStartupError(uint8 errorCode)
 126:Generated_Source\PSoC4/cyfitter_cfg.c **** {
 127:Generated_Source\PSoC4/cyfitter_cfg.c ****     /* To remove the compiler warning if errorCode not used.                */
 128:Generated_Source\PSoC4/cyfitter_cfg.c ****     errorCode = errorCode;
 129:Generated_Source\PSoC4/cyfitter_cfg.c **** 
 130:Generated_Source\PSoC4/cyfitter_cfg.c ****     /* If we have a clock startup error (bad MHz crystal, PLL lock, etc.),  */
 131:Generated_Source\PSoC4/cyfitter_cfg.c ****     /* we will end up here to allow the customer to implement something to  */
 132:Generated_Source\PSoC4/cyfitter_cfg.c ****     /* deal with the clock condition.                                       */
 133:Generated_Source\PSoC4/cyfitter_cfg.c **** 
 134:Generated_Source\PSoC4/cyfitter_cfg.c **** #ifdef CY_CFG_CLOCK_STARTUP_ERROR_CALLBACK
 135:Generated_Source\PSoC4/cyfitter_cfg.c ****     CY_CFG_Clock_Startup_ErrorCallback();
 136:Generated_Source\PSoC4/cyfitter_cfg.c **** #else
 137:Generated_Source\PSoC4/cyfitter_cfg.c ****     /*  If not using CY_CFG_CLOCK_STARTUP_ERROR_CALLBACK, place your clock startup code here. */
 138:Generated_Source\PSoC4/cyfitter_cfg.c ****     /* `#START CyClockStartupError` */
 139:Generated_Source\PSoC4/cyfitter_cfg.c **** 
 140:Generated_Source\PSoC4/cyfitter_cfg.c **** 
 141:Generated_Source\PSoC4/cyfitter_cfg.c **** 
 142:Generated_Source\PSoC4/cyfitter_cfg.c ****     /* `#END` */
 143:Generated_Source\PSoC4/cyfitter_cfg.c **** 
 144:Generated_Source\PSoC4/cyfitter_cfg.c ****     while(1) {}
 145:Generated_Source\PSoC4/cyfitter_cfg.c **** #endif /* CY_CFG_CLOCK_STARTUP_ERROR_CALLBACK */
ARM GAS  C:\Users\User\AppData\Local\Temp\cc5PRTKJ.s 			page 4


 146:Generated_Source\PSoC4/cyfitter_cfg.c **** }
 147:Generated_Source\PSoC4/cyfitter_cfg.c **** #endif
 148:Generated_Source\PSoC4/cyfitter_cfg.c **** 
 149:Generated_Source\PSoC4/cyfitter_cfg.c **** #define CY_CFG_BASE_ADDR_COUNT 10u
 150:Generated_Source\PSoC4/cyfitter_cfg.c **** CYPACKED typedef struct
 151:Generated_Source\PSoC4/cyfitter_cfg.c **** {
 152:Generated_Source\PSoC4/cyfitter_cfg.c **** 	uint8 offset;
 153:Generated_Source\PSoC4/cyfitter_cfg.c **** 	uint8 value;
 154:Generated_Source\PSoC4/cyfitter_cfg.c **** } CYPACKED_ATTR cy_cfg_addrvalue_t;
 155:Generated_Source\PSoC4/cyfitter_cfg.c **** 
 156:Generated_Source\PSoC4/cyfitter_cfg.c **** 
 157:Generated_Source\PSoC4/cyfitter_cfg.c **** 
 158:Generated_Source\PSoC4/cyfitter_cfg.c **** /*******************************************************************************
 159:Generated_Source\PSoC4/cyfitter_cfg.c **** * Function Name: cfg_write_bytes32
 160:Generated_Source\PSoC4/cyfitter_cfg.c **** ********************************************************************************
 161:Generated_Source\PSoC4/cyfitter_cfg.c **** * Summary:
 162:Generated_Source\PSoC4/cyfitter_cfg.c **** *  This function is used for setting up the chip configuration areas that
 163:Generated_Source\PSoC4/cyfitter_cfg.c **** *  contain relatively sparse data.
 164:Generated_Source\PSoC4/cyfitter_cfg.c **** *
 165:Generated_Source\PSoC4/cyfitter_cfg.c **** * Parameters:
 166:Generated_Source\PSoC4/cyfitter_cfg.c **** *   void
 167:Generated_Source\PSoC4/cyfitter_cfg.c **** *
 168:Generated_Source\PSoC4/cyfitter_cfg.c **** * Return:
 169:Generated_Source\PSoC4/cyfitter_cfg.c **** *   void
 170:Generated_Source\PSoC4/cyfitter_cfg.c **** *
 171:Generated_Source\PSoC4/cyfitter_cfg.c **** *******************************************************************************/
 172:Generated_Source\PSoC4/cyfitter_cfg.c **** static void cfg_write_bytes32(const uint32 addr_table[], const cy_cfg_addrvalue_t data_table[]);
 173:Generated_Source\PSoC4/cyfitter_cfg.c **** static void cfg_write_bytes32(const uint32 addr_table[], const cy_cfg_addrvalue_t data_table[])
 174:Generated_Source\PSoC4/cyfitter_cfg.c **** {
  27              		.loc 1 174 0
  28              		.cfi_startproc
  29              		@ args = 0, pretend = 0, frame = 0
  30              		@ frame_needed = 0, uses_anonymous_args = 0
  31              	.LVL0:
  32 0000 F0B5     		push	{r4, r5, r6, r7, lr}
  33              		.cfi_def_cfa_offset 20
  34              		.cfi_offset 4, -20
  35              		.cfi_offset 5, -16
  36              		.cfi_offset 6, -12
  37              		.cfi_offset 7, -8
  38              		.cfi_offset 14, -4
  39              	.LVL1:
 175:Generated_Source\PSoC4/cyfitter_cfg.c **** 	/* For 32-bit little-endian architectures */
 176:Generated_Source\PSoC4/cyfitter_cfg.c **** 	uint32 i, j = 0u;
  40              		.loc 1 176 0
  41 0002 0025     		movs	r5, #0
 177:Generated_Source\PSoC4/cyfitter_cfg.c **** 	for (i = 0u; i < CY_CFG_BASE_ADDR_COUNT; i++)
  42              		.loc 1 177 0
  43 0004 0027     		movs	r7, #0
  44 0006 11E0     		b	.L2
  45              	.LVL2:
  46              	.L5:
  47              	.LBB2:
 178:Generated_Source\PSoC4/cyfitter_cfg.c **** 	{
 179:Generated_Source\PSoC4/cyfitter_cfg.c **** 		uint32 baseAddr = addr_table[i];
  48              		.loc 1 179 0
  49 0008 BB00     		lsls	r3, r7, #2
ARM GAS  C:\Users\User\AppData\Local\Temp\cc5PRTKJ.s 			page 5


  50 000a C658     		ldr	r6, [r0, r3]
  51              	.LVL3:
 180:Generated_Source\PSoC4/cyfitter_cfg.c **** 		uint8 count = (uint8)baseAddr;
  52              		.loc 1 180 0
  53 000c F3B2     		uxtb	r3, r6
  54              	.LVL4:
 181:Generated_Source\PSoC4/cyfitter_cfg.c **** 		baseAddr &= 0xFFFFFF00u;
  55              		.loc 1 181 0
  56 000e FF22     		movs	r2, #255
  57 0010 9643     		bics	r6, r2
  58              	.LVL5:
 182:Generated_Source\PSoC4/cyfitter_cfg.c **** 		while (count != 0u)
  59              		.loc 1 182 0
  60 0012 08E0     		b	.L3
  61              	.L4:
 183:Generated_Source\PSoC4/cyfitter_cfg.c **** 		{
 184:Generated_Source\PSoC4/cyfitter_cfg.c **** 			CY_SET_REG8((void *)(baseAddr + data_table[j].offset), data_table[j].value);
  62              		.loc 1 184 0
  63 0014 6A00     		lsls	r2, r5, #1
  64 0016 8A18     		adds	r2, r1, r2
  65 0018 1478     		ldrb	r4, [r2]
  66 001a A419     		adds	r4, r4, r6
  67 001c 5278     		ldrb	r2, [r2, #1]
  68 001e 2270     		strb	r2, [r4]
 185:Generated_Source\PSoC4/cyfitter_cfg.c **** 			j++;
  69              		.loc 1 185 0
  70 0020 0135     		adds	r5, r5, #1
  71              	.LVL6:
 186:Generated_Source\PSoC4/cyfitter_cfg.c **** 			count--;
  72              		.loc 1 186 0
  73 0022 013B     		subs	r3, r3, #1
  74              	.LVL7:
  75 0024 DBB2     		uxtb	r3, r3
  76              	.LVL8:
  77              	.L3:
 182:Generated_Source\PSoC4/cyfitter_cfg.c **** 		{
  78              		.loc 1 182 0
  79 0026 002B     		cmp	r3, #0
  80 0028 F4D1     		bne	.L4
  81              	.LBE2:
 177:Generated_Source\PSoC4/cyfitter_cfg.c **** 	{
  82              		.loc 1 177 0 discriminator 2
  83 002a 0137     		adds	r7, r7, #1
  84              	.LVL9:
  85              	.L2:
 177:Generated_Source\PSoC4/cyfitter_cfg.c **** 	{
  86              		.loc 1 177 0 is_stmt 0 discriminator 1
  87 002c 092F     		cmp	r7, #9
  88 002e EBD9     		bls	.L5
 187:Generated_Source\PSoC4/cyfitter_cfg.c **** 		}
 188:Generated_Source\PSoC4/cyfitter_cfg.c **** 	}
 189:Generated_Source\PSoC4/cyfitter_cfg.c **** }
  89              		.loc 1 189 0 is_stmt 1
  90              		@ sp needed
  91              	.LVL10:
  92              	.LVL11:
  93 0030 F0BD     		pop	{r4, r5, r6, r7, pc}
ARM GAS  C:\Users\User\AppData\Local\Temp\cc5PRTKJ.s 			page 6


  94              		.cfi_endproc
  95              	.LFE5:
  96              		.size	cfg_write_bytes32, .-cfg_write_bytes32
  97 0032 C046     		.section	.text.AnalogSetDefault,"ax",%progbits
  98              		.align	2
  99              		.code	16
 100              		.thumb_func
 101              		.type	AnalogSetDefault, %function
 102              	AnalogSetDefault:
 103              	.LFB7:
 190:Generated_Source\PSoC4/cyfitter_cfg.c **** 
 191:Generated_Source\PSoC4/cyfitter_cfg.c **** 
 192:Generated_Source\PSoC4/cyfitter_cfg.c **** /*******************************************************************************
 193:Generated_Source\PSoC4/cyfitter_cfg.c **** * Function Name: ClockSetup
 194:Generated_Source\PSoC4/cyfitter_cfg.c **** ********************************************************************************
 195:Generated_Source\PSoC4/cyfitter_cfg.c **** *
 196:Generated_Source\PSoC4/cyfitter_cfg.c **** * Summary:
 197:Generated_Source\PSoC4/cyfitter_cfg.c **** *   Performs the initialization of all of the clocks in the device based on the
 198:Generated_Source\PSoC4/cyfitter_cfg.c **** *   settings in the Clock tab of the DWR.  This includes enabling the requested
 199:Generated_Source\PSoC4/cyfitter_cfg.c **** *   clocks and setting the necessary dividers to produce the desired frequency. 
 200:Generated_Source\PSoC4/cyfitter_cfg.c **** *
 201:Generated_Source\PSoC4/cyfitter_cfg.c **** * Parameters:
 202:Generated_Source\PSoC4/cyfitter_cfg.c **** *   void
 203:Generated_Source\PSoC4/cyfitter_cfg.c **** *
 204:Generated_Source\PSoC4/cyfitter_cfg.c **** * Return:
 205:Generated_Source\PSoC4/cyfitter_cfg.c **** *   void
 206:Generated_Source\PSoC4/cyfitter_cfg.c **** *
 207:Generated_Source\PSoC4/cyfitter_cfg.c **** *******************************************************************************/
 208:Generated_Source\PSoC4/cyfitter_cfg.c **** static void ClockSetup(void);
 209:Generated_Source\PSoC4/cyfitter_cfg.c **** CY_CFG_SECTION
 210:Generated_Source\PSoC4/cyfitter_cfg.c **** static void ClockSetup(void)
 211:Generated_Source\PSoC4/cyfitter_cfg.c **** {
 212:Generated_Source\PSoC4/cyfitter_cfg.c **** 
 213:Generated_Source\PSoC4/cyfitter_cfg.c **** 	/* Set Flash Cycles based on max possible frequency in case a glitch occurs during ClockSetup(). *
 214:Generated_Source\PSoC4/cyfitter_cfg.c **** 	CY_SET_REG32((void CYXDATA *)(CYREG_CPUSS_FLASH_CTL), (0x0012u));
 215:Generated_Source\PSoC4/cyfitter_cfg.c **** 
 216:Generated_Source\PSoC4/cyfitter_cfg.c **** 	/* Start the WCO */
 217:Generated_Source\PSoC4/cyfitter_cfg.c **** 	CySysClkWcoStart();
 218:Generated_Source\PSoC4/cyfitter_cfg.c **** 	CyDelayCycles(12000000u); /* WCO may take up to 500ms to start */
 219:Generated_Source\PSoC4/cyfitter_cfg.c **** 	(void)CySysClkWcoSetPowerMode(CY_SYS_CLK_WCO_LPM);    /* Switch to the low power mode */
 220:Generated_Source\PSoC4/cyfitter_cfg.c **** 
 221:Generated_Source\PSoC4/cyfitter_cfg.c **** 	/* Setup and trim IMO based on desired frequency. */
 222:Generated_Source\PSoC4/cyfitter_cfg.c **** 	CySysClkWriteImoFreq(24u);
 223:Generated_Source\PSoC4/cyfitter_cfg.c **** 	/* CYDEV_CLK_ILO_CONFIG Starting address: CYDEV_CLK_ILO_CONFIG */
 224:Generated_Source\PSoC4/cyfitter_cfg.c **** 	CY_SET_REG32((void *)(CYREG_CLK_ILO_CONFIG), 0x80000006u);
 225:Generated_Source\PSoC4/cyfitter_cfg.c **** 
 226:Generated_Source\PSoC4/cyfitter_cfg.c **** 	/* CYDEV_WDT_CONFIG Starting address: CYDEV_WDT_CONFIG */
 227:Generated_Source\PSoC4/cyfitter_cfg.c **** 	CY_SET_REG32((void *)(CYREG_WDT_CONFIG), 0x40000000u);
 228:Generated_Source\PSoC4/cyfitter_cfg.c **** 
 229:Generated_Source\PSoC4/cyfitter_cfg.c **** 
 230:Generated_Source\PSoC4/cyfitter_cfg.c **** 	/* Enable fast start mode for XO */
 231:Generated_Source\PSoC4/cyfitter_cfg.c **** 	CY_SET_REG32((void*)CYREG_BLE_BLERD_BB_XO, CY_GET_REG32((void*)CYREG_BLE_BLERD_BB_XO) | (uint32)0x
 232:Generated_Source\PSoC4/cyfitter_cfg.c **** 	CY_SET_REG32((void *)(CYREG_BLE_BLERD_BB_XO_CAPTRIM), 0x00003E2Du);
 233:Generated_Source\PSoC4/cyfitter_cfg.c **** 	/*Set XTAL(ECO) divider*/
 234:Generated_Source\PSoC4/cyfitter_cfg.c **** 	CY_SET_REG32((void *)(CYREG_BLE_BLESS_XTAL_CLK_DIV_CONFIG), 0x00000000u);
 235:Generated_Source\PSoC4/cyfitter_cfg.c **** 	/* Disable Crystal Stable Interrupt before enabling ECO */
 236:Generated_Source\PSoC4/cyfitter_cfg.c **** 	CY_SET_REG32((void*)CYREG_BLE_BLESS_LL_DSM_CTRL, CY_GET_REG32((void*)CYREG_BLE_BLESS_LL_DSM_CTRL) 
ARM GAS  C:\Users\User\AppData\Local\Temp\cc5PRTKJ.s 			page 7


 237:Generated_Source\PSoC4/cyfitter_cfg.c **** 	/* Start the ECO and do not check status since it is not needed for HFCLK */
 238:Generated_Source\PSoC4/cyfitter_cfg.c **** 	(void)CySysClkEcoStart(2000u);
 239:Generated_Source\PSoC4/cyfitter_cfg.c **** 	CyDelayUs(1500u); /* Wait to stabilize */
 240:Generated_Source\PSoC4/cyfitter_cfg.c **** 
 241:Generated_Source\PSoC4/cyfitter_cfg.c **** 	/* Setup phase aligned clocks */
 242:Generated_Source\PSoC4/cyfitter_cfg.c **** 	CY_SET_REG32((void *)CYREG_PERI_DIV_16_CTL5, 0x00EA5F00u);
 243:Generated_Source\PSoC4/cyfitter_cfg.c **** 	CY_SET_REG32((void *)CYREG_PERI_DIV_CMD, 0x8000FF45u);
 244:Generated_Source\PSoC4/cyfitter_cfg.c **** 	CY_SET_REG32((void *)CYREG_PERI_DIV_16_CTL1, 0x00000200u);
 245:Generated_Source\PSoC4/cyfitter_cfg.c **** 	CY_SET_REG32((void *)CYREG_PERI_DIV_CMD, 0x8000FF41u);
 246:Generated_Source\PSoC4/cyfitter_cfg.c **** 	CY_SET_REG32((void *)CYREG_PERI_DIV_16_CTL4, 0x005DBF00u);
 247:Generated_Source\PSoC4/cyfitter_cfg.c **** 	CY_SET_REG32((void *)CYREG_PERI_DIV_CMD, 0x8000FF44u);
 248:Generated_Source\PSoC4/cyfitter_cfg.c **** 	CY_SET_REG32((void *)CYREG_PERI_DIV_16_CTL0, 0x00000200u);
 249:Generated_Source\PSoC4/cyfitter_cfg.c **** 	CY_SET_REG32((void *)CYREG_PERI_DIV_CMD, 0x8000FF40u);
 250:Generated_Source\PSoC4/cyfitter_cfg.c **** 	CY_SET_REG32((void *)CYREG_PERI_DIV_16_CTL3, 0x00001700u);
 251:Generated_Source\PSoC4/cyfitter_cfg.c **** 	CY_SET_REG32((void *)CYREG_PERI_DIV_CMD, 0x8000FF43u);
 252:Generated_Source\PSoC4/cyfitter_cfg.c **** 	CY_SET_REG32((void *)CYREG_PERI_DIV_16_CTL2, 0x00000C00u);
 253:Generated_Source\PSoC4/cyfitter_cfg.c **** 	CY_SET_REG32((void *)CYREG_PERI_DIV_CMD, 0x8000FF42u);
 254:Generated_Source\PSoC4/cyfitter_cfg.c **** 
 255:Generated_Source\PSoC4/cyfitter_cfg.c **** 	/* CYDEV_CLK_IMO_CONFIG Starting address: CYDEV_CLK_IMO_CONFIG */
 256:Generated_Source\PSoC4/cyfitter_cfg.c **** 	CY_SET_REG32((void *)(CYREG_CLK_IMO_CONFIG), 0x82000000u);
 257:Generated_Source\PSoC4/cyfitter_cfg.c **** 
 258:Generated_Source\PSoC4/cyfitter_cfg.c **** 	/* CYDEV_CLK_SELECT Starting address: CYDEV_CLK_SELECT */
 259:Generated_Source\PSoC4/cyfitter_cfg.c **** 	CY_SET_REG32((void *)(CYREG_CLK_SELECT), 0x00000000u);
 260:Generated_Source\PSoC4/cyfitter_cfg.c **** 
 261:Generated_Source\PSoC4/cyfitter_cfg.c **** 	/* CYDEV_PERI_PCLK_CTL14 Starting address: CYDEV_PERI_PCLK_CTL14 */
 262:Generated_Source\PSoC4/cyfitter_cfg.c **** 	CY_SET_REG32((void *)(CYREG_PERI_PCLK_CTL14), 0x00000045u);
 263:Generated_Source\PSoC4/cyfitter_cfg.c **** 
 264:Generated_Source\PSoC4/cyfitter_cfg.c **** 	/* CYDEV_PERI_PCLK_CTL12 Starting address: CYDEV_PERI_PCLK_CTL12 */
 265:Generated_Source\PSoC4/cyfitter_cfg.c **** 	CY_SET_REG32((void *)(CYREG_PERI_PCLK_CTL12), 0x00000041u);
 266:Generated_Source\PSoC4/cyfitter_cfg.c **** 
 267:Generated_Source\PSoC4/cyfitter_cfg.c **** 	/* CYDEV_PERI_PCLK_CTL8 Starting address: CYDEV_PERI_PCLK_CTL8 */
 268:Generated_Source\PSoC4/cyfitter_cfg.c **** 	CY_SET_REG32((void *)(CYREG_PERI_PCLK_CTL8), 0x00000044u);
 269:Generated_Source\PSoC4/cyfitter_cfg.c **** 
 270:Generated_Source\PSoC4/cyfitter_cfg.c **** 	/* CYDEV_PERI_PCLK_CTL7 Starting address: CYDEV_PERI_PCLK_CTL7 */
 271:Generated_Source\PSoC4/cyfitter_cfg.c **** 	CY_SET_REG32((void *)(CYREG_PERI_PCLK_CTL7), 0x00000040u);
 272:Generated_Source\PSoC4/cyfitter_cfg.c **** 
 273:Generated_Source\PSoC4/cyfitter_cfg.c **** 	/* CYDEV_PERI_PCLK_CTL6 Starting address: CYDEV_PERI_PCLK_CTL6 */
 274:Generated_Source\PSoC4/cyfitter_cfg.c **** 	CY_SET_REG32((void *)(CYREG_PERI_PCLK_CTL6), 0x00000043u);
 275:Generated_Source\PSoC4/cyfitter_cfg.c **** 
 276:Generated_Source\PSoC4/cyfitter_cfg.c **** 	/* CYDEV_PERI_PCLK_CTL1 Starting address: CYDEV_PERI_PCLK_CTL1 */
 277:Generated_Source\PSoC4/cyfitter_cfg.c **** 	CY_SET_REG32((void *)(CYREG_PERI_PCLK_CTL1), 0x00000042u);
 278:Generated_Source\PSoC4/cyfitter_cfg.c **** 
 279:Generated_Source\PSoC4/cyfitter_cfg.c **** 	(void)CyIntSetVector(8u, &CySysWdtIsr);
 280:Generated_Source\PSoC4/cyfitter_cfg.c **** 	CyIntEnable(8u);
 281:Generated_Source\PSoC4/cyfitter_cfg.c **** 	CY_SET_REG32((void *)(CYREG_WDT_CONFIG), 0x40000000u);
 282:Generated_Source\PSoC4/cyfitter_cfg.c **** 	/* Set Flash Cycles based on newly configured 24.00MHz HFCLK. */
 283:Generated_Source\PSoC4/cyfitter_cfg.c **** 	CY_SET_REG32((void CYXDATA *)(CYREG_CPUSS_FLASH_CTL), (0x0011u));
 284:Generated_Source\PSoC4/cyfitter_cfg.c **** }
 285:Generated_Source\PSoC4/cyfitter_cfg.c **** 
 286:Generated_Source\PSoC4/cyfitter_cfg.c **** 
 287:Generated_Source\PSoC4/cyfitter_cfg.c **** /* Analog API Functions */
 288:Generated_Source\PSoC4/cyfitter_cfg.c **** 
 289:Generated_Source\PSoC4/cyfitter_cfg.c **** 
 290:Generated_Source\PSoC4/cyfitter_cfg.c **** /*******************************************************************************
 291:Generated_Source\PSoC4/cyfitter_cfg.c **** * Function Name: AnalogSetDefault
 292:Generated_Source\PSoC4/cyfitter_cfg.c **** ********************************************************************************
 293:Generated_Source\PSoC4/cyfitter_cfg.c **** *
ARM GAS  C:\Users\User\AppData\Local\Temp\cc5PRTKJ.s 			page 8


 294:Generated_Source\PSoC4/cyfitter_cfg.c **** * Summary:
 295:Generated_Source\PSoC4/cyfitter_cfg.c **** *  Sets up the analog portions of the chip to default values based on chip
 296:Generated_Source\PSoC4/cyfitter_cfg.c **** *  configuration options from the project.
 297:Generated_Source\PSoC4/cyfitter_cfg.c **** *
 298:Generated_Source\PSoC4/cyfitter_cfg.c **** * Parameters:
 299:Generated_Source\PSoC4/cyfitter_cfg.c **** *  void
 300:Generated_Source\PSoC4/cyfitter_cfg.c **** *
 301:Generated_Source\PSoC4/cyfitter_cfg.c **** * Return:
 302:Generated_Source\PSoC4/cyfitter_cfg.c **** *  void
 303:Generated_Source\PSoC4/cyfitter_cfg.c **** *
 304:Generated_Source\PSoC4/cyfitter_cfg.c **** *******************************************************************************/
 305:Generated_Source\PSoC4/cyfitter_cfg.c **** static void AnalogSetDefault(void);
 306:Generated_Source\PSoC4/cyfitter_cfg.c **** static void AnalogSetDefault(void)
 307:Generated_Source\PSoC4/cyfitter_cfg.c **** {
 104              		.loc 1 307 0
 105              		.cfi_startproc
 106              		@ args = 0, pretend = 0, frame = 0
 107              		@ frame_needed = 0, uses_anonymous_args = 0
 108              		@ link register save eliminated.
 308:Generated_Source\PSoC4/cyfitter_cfg.c **** 	CY_SET_XTND_REG32((void CYFAR *)CYREG_CTBM0_DFT_CTRL, 0x00000003u);
 109              		.loc 1 308 0
 110 0000 0323     		movs	r3, #3
 111 0002 074A     		ldr	r2, .L7
 112 0004 1360     		str	r3, [r2]
 309:Generated_Source\PSoC4/cyfitter_cfg.c **** 	CY_SET_XTND_REG32((void CYFAR *)CYREG_CTBM1_DFT_CTRL, 0x00000003u);
 113              		.loc 1 309 0
 114 0006 074A     		ldr	r2, .L7+4
 115 0008 1360     		str	r3, [r2]
 310:Generated_Source\PSoC4/cyfitter_cfg.c **** 	CY_SET_XTND_REG32((void CYFAR *)CYREG_SAR_CTRL, 0x80000000u);
 116              		.loc 1 310 0
 117 000a 8022     		movs	r2, #128
 118 000c 1206     		lsls	r2, r2, #24
 119 000e 064B     		ldr	r3, .L7+8
 120 0010 1A60     		str	r2, [r3]
 311:Generated_Source\PSoC4/cyfitter_cfg.c **** 	CY_SET_XTND_REG32((void CYFAR *)CYREG_SAR_MUX_SWITCH0, 0x00000001u);
 121              		.loc 1 311 0
 122 0012 0122     		movs	r2, #1
 123 0014 054B     		ldr	r3, .L7+12
 124 0016 1A60     		str	r2, [r3]
 312:Generated_Source\PSoC4/cyfitter_cfg.c **** 	CY_SET_XTND_REG32((void CYFAR *)CYREG_PASS_DSAB_DSAB_CTRL, 0x00000000u);
 125              		.loc 1 312 0
 126 0018 0022     		movs	r2, #0
 127 001a 054B     		ldr	r3, .L7+16
 128 001c 1A60     		str	r2, [r3]
 313:Generated_Source\PSoC4/cyfitter_cfg.c **** 	/* Variable VDDA is selected; no pumps are enabled by default */
 314:Generated_Source\PSoC4/cyfitter_cfg.c **** }
 129              		.loc 1 314 0
 130              		@ sp needed
 131 001e 7047     		bx	lr
 132              	.L8:
 133              		.align	2
 134              	.L7:
 135 0020 30003040 		.word	1076887600
 136 0024 30003140 		.word	1076953136
 137 0028 00003A40 		.word	1077542912
 138 002c 00033A40 		.word	1077543680
 139 0030 000E3F40 		.word	1077874176
ARM GAS  C:\Users\User\AppData\Local\Temp\cc5PRTKJ.s 			page 9


 140              		.cfi_endproc
 141              	.LFE7:
 142              		.size	AnalogSetDefault, .-AnalogSetDefault
 143              		.section	.text.CYMEMZERO,"ax",%progbits
 144              		.align	2
 145              		.code	16
 146              		.thumb_func
 147              		.type	CYMEMZERO, %function
 148              	CYMEMZERO:
 149              	.LFB2:
  76:Generated_Source\PSoC4/cyfitter_cfg.c **** 	(void)memset(s, 0, n);
 150              		.loc 1 76 0
 151              		.cfi_startproc
 152              		@ args = 0, pretend = 0, frame = 0
 153              		@ frame_needed = 0, uses_anonymous_args = 0
 154              	.LVL12:
 155 0000 10B5     		push	{r4, lr}
 156              		.cfi_def_cfa_offset 8
 157              		.cfi_offset 4, -8
 158              		.cfi_offset 14, -4
 159 0002 0A00     		movs	r2, r1
  77:Generated_Source\PSoC4/cyfitter_cfg.c **** }
 160              		.loc 1 77 0
 161 0004 0021     		movs	r1, #0
 162              	.LVL13:
 163 0006 FFF7FEFF 		bl	memset
 164              	.LVL14:
  78:Generated_Source\PSoC4/cyfitter_cfg.c **** CY_CFG_UNUSED
 165              		.loc 1 78 0
 166              		@ sp needed
 167 000a 10BD     		pop	{r4, pc}
 168              		.cfi_endproc
 169              	.LFE2:
 170              		.size	CYMEMZERO, .-CYMEMZERO
 171              		.section	.text.CYCONFIGCPYCODE,"ax",%progbits
 172              		.align	2
 173              		.code	16
 174              		.thumb_func
 175              		.type	CYCONFIGCPYCODE, %function
 176              	CYCONFIGCPYCODE:
 177              	.LFB4:
  90:Generated_Source\PSoC4/cyfitter_cfg.c **** 	(void)memcpy(dest, src, n);
 178              		.loc 1 90 0
 179              		.cfi_startproc
 180              		@ args = 0, pretend = 0, frame = 0
 181              		@ frame_needed = 0, uses_anonymous_args = 0
 182              	.LVL15:
 183 0000 10B5     		push	{r4, lr}
 184              		.cfi_def_cfa_offset 8
 185              		.cfi_offset 4, -8
 186              		.cfi_offset 14, -4
  91:Generated_Source\PSoC4/cyfitter_cfg.c **** }
 187              		.loc 1 91 0
 188 0002 FFF7FEFF 		bl	memcpy
 189              	.LVL16:
  92:Generated_Source\PSoC4/cyfitter_cfg.c **** 
 190              		.loc 1 92 0
ARM GAS  C:\Users\User\AppData\Local\Temp\cc5PRTKJ.s 			page 10


 191              		@ sp needed
 192 0006 10BD     		pop	{r4, pc}
 193              		.cfi_endproc
 194              	.LFE4:
 195              		.size	CYCONFIGCPYCODE, .-CYCONFIGCPYCODE
 196              		.section	.psocinit,"ax",%progbits
 197              		.align	2
 198              		.code	16
 199              		.thumb_func
 200              		.type	ClockSetup, %function
 201              	ClockSetup:
 202              	.LFB6:
 211:Generated_Source\PSoC4/cyfitter_cfg.c **** 
 203              		.loc 1 211 0
 204              		.cfi_startproc
 205              		@ args = 0, pretend = 0, frame = 0
 206              		@ frame_needed = 0, uses_anonymous_args = 0
 207 0000 F8B5     		push	{r3, r4, r5, r6, r7, lr}
 208              		.cfi_def_cfa_offset 24
 209              		.cfi_offset 3, -24
 210              		.cfi_offset 4, -20
 211              		.cfi_offset 5, -16
 212              		.cfi_offset 6, -12
 213              		.cfi_offset 7, -8
 214              		.cfi_offset 14, -4
 214:Generated_Source\PSoC4/cyfitter_cfg.c **** 
 215              		.loc 1 214 0
 216 0002 384C     		ldr	r4, .L12
 217 0004 1223     		movs	r3, #18
 218 0006 2360     		str	r3, [r4]
 217:Generated_Source\PSoC4/cyfitter_cfg.c **** 	CyDelayCycles(12000000u); /* WCO may take up to 500ms to start */
 219              		.loc 1 217 0
 220 0008 FFF7FEFF 		bl	CySysClkWcoStart
 221              	.LVL17:
 218:Generated_Source\PSoC4/cyfitter_cfg.c **** 	(void)CySysClkWcoSetPowerMode(CY_SYS_CLK_WCO_LPM);    /* Switch to the low power mode */
 222              		.loc 1 218 0
 223 000c 3648     		ldr	r0, .L12+4
 224 000e FFF7FEFF 		bl	CyDelayCycles
 225              	.LVL18:
 219:Generated_Source\PSoC4/cyfitter_cfg.c **** 
 226              		.loc 1 219 0
 227 0012 0120     		movs	r0, #1
 228 0014 FFF7FEFF 		bl	CySysClkWcoSetPowerMode
 229              	.LVL19:
 222:Generated_Source\PSoC4/cyfitter_cfg.c **** 	/* CYDEV_CLK_ILO_CONFIG Starting address: CYDEV_CLK_ILO_CONFIG */
 230              		.loc 1 222 0
 231 0018 1820     		movs	r0, #24
 232 001a FFF7FEFF 		bl	CySysClkWriteImoFreq
 233              	.LVL20:
 224:Generated_Source\PSoC4/cyfitter_cfg.c **** 
 234              		.loc 1 224 0
 235 001e 334A     		ldr	r2, .L12+8
 236 0020 334B     		ldr	r3, .L12+12
 237 0022 1A60     		str	r2, [r3]
 227:Generated_Source\PSoC4/cyfitter_cfg.c **** 
 238              		.loc 1 227 0
 239 0024 334D     		ldr	r5, .L12+16
ARM GAS  C:\Users\User\AppData\Local\Temp\cc5PRTKJ.s 			page 11


 240 0026 8026     		movs	r6, #128
 241 0028 F605     		lsls	r6, r6, #23
 242 002a 2E60     		str	r6, [r5]
 231:Generated_Source\PSoC4/cyfitter_cfg.c **** 	CY_SET_REG32((void *)(CYREG_BLE_BLERD_BB_XO_CAPTRIM), 0x00003E2Du);
 243              		.loc 1 231 0
 244 002c 324A     		ldr	r2, .L12+20
 245 002e 1168     		ldr	r1, [r2]
 246 0030 0223     		movs	r3, #2
 247 0032 0B43     		orrs	r3, r1
 248 0034 1360     		str	r3, [r2]
 232:Generated_Source\PSoC4/cyfitter_cfg.c **** 	/*Set XTAL(ECO) divider*/
 249              		.loc 1 232 0
 250 0036 314A     		ldr	r2, .L12+24
 251 0038 314B     		ldr	r3, .L12+28
 252 003a 1A60     		str	r2, [r3]
 234:Generated_Source\PSoC4/cyfitter_cfg.c **** 	/* Disable Crystal Stable Interrupt before enabling ECO */
 253              		.loc 1 234 0
 254 003c 0027     		movs	r7, #0
 255 003e 314B     		ldr	r3, .L12+32
 256 0040 1F60     		str	r7, [r3]
 236:Generated_Source\PSoC4/cyfitter_cfg.c **** 	/* Start the ECO and do not check status since it is not needed for HFCLK */
 257              		.loc 1 236 0
 258 0042 314A     		ldr	r2, .L12+36
 259 0044 1368     		ldr	r3, [r2]
 260 0046 0821     		movs	r1, #8
 261 0048 8B43     		bics	r3, r1
 262 004a 1360     		str	r3, [r2]
 238:Generated_Source\PSoC4/cyfitter_cfg.c **** 	CyDelayUs(1500u); /* Wait to stabilize */
 263              		.loc 1 238 0
 264 004c FA20     		movs	r0, #250
 265 004e C000     		lsls	r0, r0, #3
 266 0050 FFF7FEFF 		bl	CySysClkEcoStart
 267              	.LVL21:
 239:Generated_Source\PSoC4/cyfitter_cfg.c **** 
 268              		.loc 1 239 0
 269 0054 2D48     		ldr	r0, .L12+40
 270 0056 FFF7FEFF 		bl	CyDelayUs
 271              	.LVL22:
 242:Generated_Source\PSoC4/cyfitter_cfg.c **** 	CY_SET_REG32((void *)CYREG_PERI_DIV_CMD, 0x8000FF45u);
 272              		.loc 1 242 0
 273 005a 2D4A     		ldr	r2, .L12+44
 274 005c 2D4B     		ldr	r3, .L12+48
 275 005e 1A60     		str	r2, [r3]
 243:Generated_Source\PSoC4/cyfitter_cfg.c **** 	CY_SET_REG32((void *)CYREG_PERI_DIV_16_CTL1, 0x00000200u);
 276              		.loc 1 243 0
 277 0060 2D4B     		ldr	r3, .L12+52
 278 0062 2E4A     		ldr	r2, .L12+56
 279 0064 1A60     		str	r2, [r3]
 244:Generated_Source\PSoC4/cyfitter_cfg.c **** 	CY_SET_REG32((void *)CYREG_PERI_DIV_CMD, 0x8000FF41u);
 280              		.loc 1 244 0
 281 0066 8022     		movs	r2, #128
 282 0068 9200     		lsls	r2, r2, #2
 283 006a 2D49     		ldr	r1, .L12+60
 284 006c 0A60     		str	r2, [r1]
 245:Generated_Source\PSoC4/cyfitter_cfg.c **** 	CY_SET_REG32((void *)CYREG_PERI_DIV_16_CTL4, 0x005DBF00u);
 285              		.loc 1 245 0
 286 006e 2D49     		ldr	r1, .L12+64
ARM GAS  C:\Users\User\AppData\Local\Temp\cc5PRTKJ.s 			page 12


 287 0070 1960     		str	r1, [r3]
 246:Generated_Source\PSoC4/cyfitter_cfg.c **** 	CY_SET_REG32((void *)CYREG_PERI_DIV_CMD, 0x8000FF44u);
 288              		.loc 1 246 0
 289 0072 2D48     		ldr	r0, .L12+68
 290 0074 2D49     		ldr	r1, .L12+72
 291 0076 0860     		str	r0, [r1]
 247:Generated_Source\PSoC4/cyfitter_cfg.c **** 	CY_SET_REG32((void *)CYREG_PERI_DIV_16_CTL0, 0x00000200u);
 292              		.loc 1 247 0
 293 0078 2D49     		ldr	r1, .L12+76
 294 007a 1960     		str	r1, [r3]
 248:Generated_Source\PSoC4/cyfitter_cfg.c **** 	CY_SET_REG32((void *)CYREG_PERI_DIV_CMD, 0x8000FF40u);
 295              		.loc 1 248 0
 296 007c 2D49     		ldr	r1, .L12+80
 297 007e 0A60     		str	r2, [r1]
 249:Generated_Source\PSoC4/cyfitter_cfg.c **** 	CY_SET_REG32((void *)CYREG_PERI_DIV_16_CTL3, 0x00001700u);
 298              		.loc 1 249 0
 299 0080 2D4A     		ldr	r2, .L12+84
 300 0082 1A60     		str	r2, [r3]
 250:Generated_Source\PSoC4/cyfitter_cfg.c **** 	CY_SET_REG32((void *)CYREG_PERI_DIV_CMD, 0x8000FF43u);
 301              		.loc 1 250 0
 302 0084 B821     		movs	r1, #184
 303 0086 4901     		lsls	r1, r1, #5
 304 0088 2C4A     		ldr	r2, .L12+88
 305 008a 1160     		str	r1, [r2]
 251:Generated_Source\PSoC4/cyfitter_cfg.c **** 	CY_SET_REG32((void *)CYREG_PERI_DIV_16_CTL2, 0x00000C00u);
 306              		.loc 1 251 0
 307 008c 2C4A     		ldr	r2, .L12+92
 308 008e 1A60     		str	r2, [r3]
 252:Generated_Source\PSoC4/cyfitter_cfg.c **** 	CY_SET_REG32((void *)CYREG_PERI_DIV_CMD, 0x8000FF42u);
 309              		.loc 1 252 0
 310 0090 C021     		movs	r1, #192
 311 0092 0901     		lsls	r1, r1, #4
 312 0094 2B4A     		ldr	r2, .L12+96
 313 0096 1160     		str	r1, [r2]
 253:Generated_Source\PSoC4/cyfitter_cfg.c **** 
 314              		.loc 1 253 0
 315 0098 2B4A     		ldr	r2, .L12+100
 316 009a 1A60     		str	r2, [r3]
 256:Generated_Source\PSoC4/cyfitter_cfg.c **** 
 317              		.loc 1 256 0
 318 009c 8222     		movs	r2, #130
 319 009e 1206     		lsls	r2, r2, #24
 320 00a0 2A4B     		ldr	r3, .L12+104
 321 00a2 1A60     		str	r2, [r3]
 259:Generated_Source\PSoC4/cyfitter_cfg.c **** 
 322              		.loc 1 259 0
 323 00a4 2A4B     		ldr	r3, .L12+108
 324 00a6 1F60     		str	r7, [r3]
 262:Generated_Source\PSoC4/cyfitter_cfg.c **** 
 325              		.loc 1 262 0
 326 00a8 4522     		movs	r2, #69
 327 00aa 2A4B     		ldr	r3, .L12+112
 328 00ac 1A60     		str	r2, [r3]
 265:Generated_Source\PSoC4/cyfitter_cfg.c **** 
 329              		.loc 1 265 0
 330 00ae 043A     		subs	r2, r2, #4
 331 00b0 294B     		ldr	r3, .L12+116
ARM GAS  C:\Users\User\AppData\Local\Temp\cc5PRTKJ.s 			page 13


 332 00b2 1A60     		str	r2, [r3]
 268:Generated_Source\PSoC4/cyfitter_cfg.c **** 
 333              		.loc 1 268 0
 334 00b4 0332     		adds	r2, r2, #3
 335 00b6 294B     		ldr	r3, .L12+120
 336 00b8 1A60     		str	r2, [r3]
 271:Generated_Source\PSoC4/cyfitter_cfg.c **** 
 337              		.loc 1 271 0
 338 00ba 043A     		subs	r2, r2, #4
 339 00bc 284B     		ldr	r3, .L12+124
 340 00be 1A60     		str	r2, [r3]
 274:Generated_Source\PSoC4/cyfitter_cfg.c **** 
 341              		.loc 1 274 0
 342 00c0 0332     		adds	r2, r2, #3
 343 00c2 284B     		ldr	r3, .L12+128
 344 00c4 1A60     		str	r2, [r3]
 277:Generated_Source\PSoC4/cyfitter_cfg.c **** 
 345              		.loc 1 277 0
 346 00c6 013A     		subs	r2, r2, #1
 347 00c8 274B     		ldr	r3, .L12+132
 348 00ca 1A60     		str	r2, [r3]
 279:Generated_Source\PSoC4/cyfitter_cfg.c **** 	CyIntEnable(8u);
 349              		.loc 1 279 0
 350 00cc 2749     		ldr	r1, .L12+136
 351 00ce 0820     		movs	r0, #8
 352 00d0 FFF7FEFF 		bl	CyIntSetVector
 353              	.LVL23:
 280:Generated_Source\PSoC4/cyfitter_cfg.c **** 	CY_SET_REG32((void *)(CYREG_WDT_CONFIG), 0x40000000u);
 354              		.loc 1 280 0
 355 00d4 0820     		movs	r0, #8
 356 00d6 FFF7FEFF 		bl	CyIntEnable
 357              	.LVL24:
 281:Generated_Source\PSoC4/cyfitter_cfg.c **** 	/* Set Flash Cycles based on newly configured 24.00MHz HFCLK. */
 358              		.loc 1 281 0
 359 00da 2E60     		str	r6, [r5]
 283:Generated_Source\PSoC4/cyfitter_cfg.c **** }
 360              		.loc 1 283 0
 361 00dc 1123     		movs	r3, #17
 362 00de 2360     		str	r3, [r4]
 284:Generated_Source\PSoC4/cyfitter_cfg.c **** 
 363              		.loc 1 284 0
 364              		@ sp needed
 365 00e0 F8BD     		pop	{r3, r4, r5, r6, r7, pc}
 366              	.L13:
 367 00e2 C046     		.align	2
 368              	.L12:
 369 00e4 30001040 		.word	1074790448
 370 00e8 001BB700 		.word	12000000
 371 00ec 06000080 		.word	-2147483642
 372 00f0 04010B40 		.word	1074462980
 373 00f4 0C020B40 		.word	1074463244
 374 00f8 78002E40 		.word	1076756600
 375 00fc 2D3E0000 		.word	15917
 376 0100 7C002E40 		.word	1076756604
 377 0104 64F02E40 		.word	1076818020
 378 0108 6CF02E40 		.word	1076818028
 379 010c DC050000 		.word	1500
ARM GAS  C:\Users\User\AppData\Local\Temp\cc5PRTKJ.s 			page 14


 380 0110 005FEA00 		.word	15359744
 381 0114 14030140 		.word	1073808148
 382 0118 00000140 		.word	1073807360
 383 011c 45FF0080 		.word	-2147418299
 384 0120 04030140 		.word	1073808132
 385 0124 41FF0080 		.word	-2147418303
 386 0128 00BF5D00 		.word	6143744
 387 012c 10030140 		.word	1073808144
 388 0130 44FF0080 		.word	-2147418300
 389 0134 00030140 		.word	1073808128
 390 0138 40FF0080 		.word	-2147418304
 391 013c 0C030140 		.word	1073808140
 392 0140 43FF0080 		.word	-2147418301
 393 0144 08030140 		.word	1073808136
 394 0148 42FF0080 		.word	-2147418302
 395 014c 08010B40 		.word	1074462984
 396 0150 00010B40 		.word	1074462976
 397 0154 38010140 		.word	1073807672
 398 0158 30010140 		.word	1073807664
 399 015c 20010140 		.word	1073807648
 400 0160 1C010140 		.word	1073807644
 401 0164 18010140 		.word	1073807640
 402 0168 04010140 		.word	1073807620
 403 016c 00000000 		.word	CySysWdtIsr
 404              		.cfi_endproc
 405              	.LFE6:
 406              		.size	ClockSetup, .-ClockSetup
 407              		.section	.text.SetAnalogRoutingPumps,"ax",%progbits
 408              		.align	2
 409              		.global	SetAnalogRoutingPumps
 410              		.code	16
 411              		.thumb_func
 412              		.type	SetAnalogRoutingPumps, %function
 413              	SetAnalogRoutingPumps:
 414              	.LFB8:
 315:Generated_Source\PSoC4/cyfitter_cfg.c **** 
 316:Generated_Source\PSoC4/cyfitter_cfg.c **** 
 317:Generated_Source\PSoC4/cyfitter_cfg.c **** /*******************************************************************************
 318:Generated_Source\PSoC4/cyfitter_cfg.c **** * Function Name: SetAnalogRoutingPumps
 319:Generated_Source\PSoC4/cyfitter_cfg.c **** ********************************************************************************
 320:Generated_Source\PSoC4/cyfitter_cfg.c **** *
 321:Generated_Source\PSoC4/cyfitter_cfg.c **** * Summary:
 322:Generated_Source\PSoC4/cyfitter_cfg.c **** * Enables or disables the analog pumps feeding analog routing switches.
 323:Generated_Source\PSoC4/cyfitter_cfg.c **** * Intended to be called at startup, based on the Vdda system configuration;
 324:Generated_Source\PSoC4/cyfitter_cfg.c **** * may be called during operation when the user informs us that the Vdda voltage crossed the pump th
 325:Generated_Source\PSoC4/cyfitter_cfg.c **** *
 326:Generated_Source\PSoC4/cyfitter_cfg.c **** * Parameters:
 327:Generated_Source\PSoC4/cyfitter_cfg.c **** *  enabled - 1 to enable the pumps, 0 to disable the pumps
 328:Generated_Source\PSoC4/cyfitter_cfg.c **** *
 329:Generated_Source\PSoC4/cyfitter_cfg.c **** * Return:
 330:Generated_Source\PSoC4/cyfitter_cfg.c **** *  void
 331:Generated_Source\PSoC4/cyfitter_cfg.c **** *
 332:Generated_Source\PSoC4/cyfitter_cfg.c **** *******************************************************************************/
 333:Generated_Source\PSoC4/cyfitter_cfg.c **** void SetAnalogRoutingPumps(uint8 enabled)
 334:Generated_Source\PSoC4/cyfitter_cfg.c **** {
 415              		.loc 1 334 0
 416              		.cfi_startproc
ARM GAS  C:\Users\User\AppData\Local\Temp\cc5PRTKJ.s 			page 15


 417              		@ args = 0, pretend = 0, frame = 0
 418              		@ frame_needed = 0, uses_anonymous_args = 0
 419              		@ link register save eliminated.
 420              	.LVL25:
 335:Generated_Source\PSoC4/cyfitter_cfg.c **** 	uint32 regValue = CY_GET_XTND_REG32((void *)(CYREG_SAR_PUMP_CTRL));
 421              		.loc 1 335 0
 422 0000 064B     		ldr	r3, .L17
 423 0002 1B68     		ldr	r3, [r3]
 424              	.LVL26:
 336:Generated_Source\PSoC4/cyfitter_cfg.c **** 	if (enabled != 0u)
 425              		.loc 1 336 0
 426 0004 0028     		cmp	r0, #0
 427 0006 03D0     		beq	.L15
 337:Generated_Source\PSoC4/cyfitter_cfg.c **** 	{
 338:Generated_Source\PSoC4/cyfitter_cfg.c **** 		regValue |= 0x80000000u;
 428              		.loc 1 338 0
 429 0008 8022     		movs	r2, #128
 430 000a 1206     		lsls	r2, r2, #24
 431 000c 1343     		orrs	r3, r2
 432              	.LVL27:
 433 000e 01E0     		b	.L16
 434              	.L15:
 339:Generated_Source\PSoC4/cyfitter_cfg.c **** 	}
 340:Generated_Source\PSoC4/cyfitter_cfg.c **** 	else
 341:Generated_Source\PSoC4/cyfitter_cfg.c **** 	{
 342:Generated_Source\PSoC4/cyfitter_cfg.c **** 		regValue &= ~0x80000000u;
 435              		.loc 1 342 0
 436 0010 5B00     		lsls	r3, r3, #1
 437              	.LVL28:
 438 0012 5B08     		lsrs	r3, r3, #1
 439              	.LVL29:
 440              	.L16:
 343:Generated_Source\PSoC4/cyfitter_cfg.c **** 	}
 344:Generated_Source\PSoC4/cyfitter_cfg.c **** 	CY_SET_XTND_REG32((void *)(CYREG_SAR_PUMP_CTRL), regValue);
 441              		.loc 1 344 0
 442 0014 014A     		ldr	r2, .L17
 443 0016 1360     		str	r3, [r2]
 345:Generated_Source\PSoC4/cyfitter_cfg.c **** }
 444              		.loc 1 345 0
 445              		@ sp needed
 446 0018 7047     		bx	lr
 447              	.L18:
 448 001a C046     		.align	2
 449              	.L17:
 450 001c 80033A40 		.word	1077543808
 451              		.cfi_endproc
 452              	.LFE8:
 453              		.size	SetAnalogRoutingPumps, .-SetAnalogRoutingPumps
 454              		.section	.psocinit
 455              		.align	2
 456              		.global	cyfitter_cfg
 457              		.code	16
 458              		.thumb_func
 459              		.type	cyfitter_cfg, %function
 460              	cyfitter_cfg:
 461              	.LFB9:
 346:Generated_Source\PSoC4/cyfitter_cfg.c **** 
ARM GAS  C:\Users\User\AppData\Local\Temp\cc5PRTKJ.s 			page 16


 347:Generated_Source\PSoC4/cyfitter_cfg.c **** 
 348:Generated_Source\PSoC4/cyfitter_cfg.c **** 
 349:Generated_Source\PSoC4/cyfitter_cfg.c **** 
 350:Generated_Source\PSoC4/cyfitter_cfg.c **** /*******************************************************************************
 351:Generated_Source\PSoC4/cyfitter_cfg.c **** * Function Name: cyfitter_cfg
 352:Generated_Source\PSoC4/cyfitter_cfg.c **** ********************************************************************************
 353:Generated_Source\PSoC4/cyfitter_cfg.c **** * Summary:
 354:Generated_Source\PSoC4/cyfitter_cfg.c **** *  This function is called by the start-up code for the selected device. It
 355:Generated_Source\PSoC4/cyfitter_cfg.c **** *  performs all of the necessary device configuration based on the design
 356:Generated_Source\PSoC4/cyfitter_cfg.c **** *  settings.  This includes settings from the Design Wide Resources (DWR) such
 357:Generated_Source\PSoC4/cyfitter_cfg.c **** *  as Clocks and Pins as well as any component configuration that is necessary.
 358:Generated_Source\PSoC4/cyfitter_cfg.c **** *
 359:Generated_Source\PSoC4/cyfitter_cfg.c **** * Parameters:
 360:Generated_Source\PSoC4/cyfitter_cfg.c **** *   void
 361:Generated_Source\PSoC4/cyfitter_cfg.c **** *
 362:Generated_Source\PSoC4/cyfitter_cfg.c **** * Return:
 363:Generated_Source\PSoC4/cyfitter_cfg.c **** *   void
 364:Generated_Source\PSoC4/cyfitter_cfg.c **** *
 365:Generated_Source\PSoC4/cyfitter_cfg.c **** *******************************************************************************/
 366:Generated_Source\PSoC4/cyfitter_cfg.c **** CY_CFG_SECTION
 367:Generated_Source\PSoC4/cyfitter_cfg.c **** void cyfitter_cfg(void)
 368:Generated_Source\PSoC4/cyfitter_cfg.c **** {
 462              		.loc 1 368 0
 463              		.cfi_startproc
 464              		@ args = 0, pretend = 0, frame = 0
 465              		@ frame_needed = 0, uses_anonymous_args = 0
 466 0170 70B5     		push	{r4, r5, r6, lr}
 467              		.cfi_def_cfa_offset 16
 468              		.cfi_offset 4, -16
 469              		.cfi_offset 5, -12
 470              		.cfi_offset 6, -8
 471              		.cfi_offset 14, -4
 369:Generated_Source\PSoC4/cyfitter_cfg.c **** 	/* Disable interrupts by default. Let user enable if/when they want. */
 370:Generated_Source\PSoC4/cyfitter_cfg.c **** 	CyGlobalIntDisable;
 472              		.loc 1 370 0
 473              		.syntax divided
 474              	@ 370 "Generated_Source\PSoC4\cyfitter_cfg.c" 1
 475 0172 72B6     		CPSID   i
 476              	@ 0 "" 2
 371:Generated_Source\PSoC4/cyfitter_cfg.c **** 
 372:Generated_Source\PSoC4/cyfitter_cfg.c **** 	CY_SET_REG32((void *)(CYREG_BLE_BLESS_LL_DSM_CTRL), 0x00000000u);
 477              		.loc 1 372 0
 478              		.thumb
 479              		.syntax unified
 480 0174 0022     		movs	r2, #0
 481 0176 3E4B     		ldr	r3, .L24
 482 0178 1A60     		str	r2, [r3]
 373:Generated_Source\PSoC4/cyfitter_cfg.c **** 
 374:Generated_Source\PSoC4/cyfitter_cfg.c **** 	/* Enable the clock in the interrupt controller for the routed interrupts */
 375:Generated_Source\PSoC4/cyfitter_cfg.c **** 	CY_SET_REG8((void *)CYREG_UDB_UDBIF_INT_CLK_CTL, 0x01u);
 483              		.loc 1 375 0
 484 017a 0132     		adds	r2, r2, #1
 485 017c 3D4B     		ldr	r3, .L24+4
 486 017e 1A70     		strb	r2, [r3]
 487              	.LVL30:
 488              	.LBB3:
 376:Generated_Source\PSoC4/cyfitter_cfg.c **** 	{
ARM GAS  C:\Users\User\AppData\Local\Temp\cc5PRTKJ.s 			page 17


 377:Generated_Source\PSoC4/cyfitter_cfg.c **** 		static const uint32 CYCODE cy_cfg_addr_table[] = {
 378:Generated_Source\PSoC4/cyfitter_cfg.c **** 			0x400F0001u, /* Base address: 0x400F0000 Count: 1 */
 379:Generated_Source\PSoC4/cyfitter_cfg.c **** 			0x400F3041u, /* Base address: 0x400F3000 Count: 65 */
 380:Generated_Source\PSoC4/cyfitter_cfg.c **** 			0x400F312Eu, /* Base address: 0x400F3100 Count: 46 */
 381:Generated_Source\PSoC4/cyfitter_cfg.c **** 			0x400F321Eu, /* Base address: 0x400F3200 Count: 30 */
 382:Generated_Source\PSoC4/cyfitter_cfg.c **** 			0x400F3344u, /* Base address: 0x400F3300 Count: 68 */
 383:Generated_Source\PSoC4/cyfitter_cfg.c **** 			0x400F4004u, /* Base address: 0x400F4000 Count: 4 */
 384:Generated_Source\PSoC4/cyfitter_cfg.c **** 			0x400F410Fu, /* Base address: 0x400F4100 Count: 15 */
 385:Generated_Source\PSoC4/cyfitter_cfg.c **** 			0x400F4204u, /* Base address: 0x400F4200 Count: 4 */
 386:Generated_Source\PSoC4/cyfitter_cfg.c **** 			0x400F4305u, /* Base address: 0x400F4300 Count: 5 */
 387:Generated_Source\PSoC4/cyfitter_cfg.c **** 			0x400F6002u, /* Base address: 0x400F6000 Count: 2 */
 388:Generated_Source\PSoC4/cyfitter_cfg.c **** 		};
 389:Generated_Source\PSoC4/cyfitter_cfg.c **** 
 390:Generated_Source\PSoC4/cyfitter_cfg.c **** 		static const cy_cfg_addrvalue_t CYCODE cy_cfg_data_table[] = {
 391:Generated_Source\PSoC4/cyfitter_cfg.c **** 			{0x83u, 0x1Fu},
 392:Generated_Source\PSoC4/cyfitter_cfg.c **** 			{0x01u, 0x04u},
 393:Generated_Source\PSoC4/cyfitter_cfg.c **** 			{0x04u, 0x72u},
 394:Generated_Source\PSoC4/cyfitter_cfg.c **** 			{0x05u, 0x0Au},
 395:Generated_Source\PSoC4/cyfitter_cfg.c **** 			{0x06u, 0x08u},
 396:Generated_Source\PSoC4/cyfitter_cfg.c **** 			{0x07u, 0x10u},
 397:Generated_Source\PSoC4/cyfitter_cfg.c **** 			{0x08u, 0x02u},
 398:Generated_Source\PSoC4/cyfitter_cfg.c **** 			{0x09u, 0x56u},
 399:Generated_Source\PSoC4/cyfitter_cfg.c **** 			{0x0Au, 0x0Du},
 400:Generated_Source\PSoC4/cyfitter_cfg.c **** 			{0x0Bu, 0x09u},
 401:Generated_Source\PSoC4/cyfitter_cfg.c **** 			{0x0Cu, 0x4Du},
 402:Generated_Source\PSoC4/cyfitter_cfg.c **** 			{0x0Du, 0x04u},
 403:Generated_Source\PSoC4/cyfitter_cfg.c **** 			{0x10u, 0x01u},
 404:Generated_Source\PSoC4/cyfitter_cfg.c **** 			{0x12u, 0x32u},
 405:Generated_Source\PSoC4/cyfitter_cfg.c **** 			{0x14u, 0x10u},
 406:Generated_Source\PSoC4/cyfitter_cfg.c **** 			{0x15u, 0x01u},
 407:Generated_Source\PSoC4/cyfitter_cfg.c **** 			{0x16u, 0x60u},
 408:Generated_Source\PSoC4/cyfitter_cfg.c **** 			{0x18u, 0x12u},
 409:Generated_Source\PSoC4/cyfitter_cfg.c **** 			{0x19u, 0x04u},
 410:Generated_Source\PSoC4/cyfitter_cfg.c **** 			{0x1Au, 0x64u},
 411:Generated_Source\PSoC4/cyfitter_cfg.c **** 			{0x1Cu, 0x4Du},
 412:Generated_Source\PSoC4/cyfitter_cfg.c **** 			{0x1Du, 0x07u},
 413:Generated_Source\PSoC4/cyfitter_cfg.c **** 			{0x1Fu, 0x38u},
 414:Generated_Source\PSoC4/cyfitter_cfg.c **** 			{0x20u, 0x4Du},
 415:Generated_Source\PSoC4/cyfitter_cfg.c **** 			{0x21u, 0x04u},
 416:Generated_Source\PSoC4/cyfitter_cfg.c **** 			{0x24u, 0x4Du},
 417:Generated_Source\PSoC4/cyfitter_cfg.c **** 			{0x27u, 0x04u},
 418:Generated_Source\PSoC4/cyfitter_cfg.c **** 			{0x28u, 0x0Du},
 419:Generated_Source\PSoC4/cyfitter_cfg.c **** 			{0x29u, 0x04u},
 420:Generated_Source\PSoC4/cyfitter_cfg.c **** 			{0x2Au, 0x40u},
 421:Generated_Source\PSoC4/cyfitter_cfg.c **** 			{0x2Du, 0x60u},
 422:Generated_Source\PSoC4/cyfitter_cfg.c **** 			{0x32u, 0x0Fu},
 423:Generated_Source\PSoC4/cyfitter_cfg.c **** 			{0x33u, 0x7Fu},
 424:Generated_Source\PSoC4/cyfitter_cfg.c **** 			{0x34u, 0x70u},
 425:Generated_Source\PSoC4/cyfitter_cfg.c **** 			{0x39u, 0x08u},
 426:Generated_Source\PSoC4/cyfitter_cfg.c **** 			{0x3Au, 0x28u},
 427:Generated_Source\PSoC4/cyfitter_cfg.c **** 			{0x54u, 0x40u},
 428:Generated_Source\PSoC4/cyfitter_cfg.c **** 			{0x58u, 0x04u},
 429:Generated_Source\PSoC4/cyfitter_cfg.c **** 			{0x59u, 0x04u},
 430:Generated_Source\PSoC4/cyfitter_cfg.c **** 			{0x5Bu, 0x04u},
 431:Generated_Source\PSoC4/cyfitter_cfg.c **** 			{0x5Cu, 0x11u},
 432:Generated_Source\PSoC4/cyfitter_cfg.c **** 			{0x5Du, 0x10u},
 433:Generated_Source\PSoC4/cyfitter_cfg.c **** 			{0x5Fu, 0x01u},
ARM GAS  C:\Users\User\AppData\Local\Temp\cc5PRTKJ.s 			page 18


 434:Generated_Source\PSoC4/cyfitter_cfg.c **** 			{0x87u, 0x03u},
 435:Generated_Source\PSoC4/cyfitter_cfg.c **** 			{0x8Cu, 0x07u},
 436:Generated_Source\PSoC4/cyfitter_cfg.c **** 			{0x8Eu, 0x08u},
 437:Generated_Source\PSoC4/cyfitter_cfg.c **** 			{0x91u, 0x01u},
 438:Generated_Source\PSoC4/cyfitter_cfg.c **** 			{0x94u, 0x1Cu},
 439:Generated_Source\PSoC4/cyfitter_cfg.c **** 			{0x97u, 0x03u},
 440:Generated_Source\PSoC4/cyfitter_cfg.c **** 			{0x9Fu, 0x02u},
 441:Generated_Source\PSoC4/cyfitter_cfg.c **** 			{0xA4u, 0x0Bu},
 442:Generated_Source\PSoC4/cyfitter_cfg.c **** 			{0xA6u, 0x14u},
 443:Generated_Source\PSoC4/cyfitter_cfg.c **** 			{0xA8u, 0x09u},
 444:Generated_Source\PSoC4/cyfitter_cfg.c **** 			{0xAAu, 0x12u},
 445:Generated_Source\PSoC4/cyfitter_cfg.c **** 			{0xB0u, 0x01u},
 446:Generated_Source\PSoC4/cyfitter_cfg.c **** 			{0xB1u, 0x03u},
 447:Generated_Source\PSoC4/cyfitter_cfg.c **** 			{0xB2u, 0x1Eu},
 448:Generated_Source\PSoC4/cyfitter_cfg.c **** 			{0xB8u, 0x08u},
 449:Generated_Source\PSoC4/cyfitter_cfg.c **** 			{0xBEu, 0x01u},
 450:Generated_Source\PSoC4/cyfitter_cfg.c **** 			{0xD4u, 0x09u},
 451:Generated_Source\PSoC4/cyfitter_cfg.c **** 			{0xD8u, 0x04u},
 452:Generated_Source\PSoC4/cyfitter_cfg.c **** 			{0xD9u, 0x04u},
 453:Generated_Source\PSoC4/cyfitter_cfg.c **** 			{0xDBu, 0x04u},
 454:Generated_Source\PSoC4/cyfitter_cfg.c **** 			{0xDCu, 0x11u},
 455:Generated_Source\PSoC4/cyfitter_cfg.c **** 			{0xDDu, 0x10u},
 456:Generated_Source\PSoC4/cyfitter_cfg.c **** 			{0xDFu, 0x01u},
 457:Generated_Source\PSoC4/cyfitter_cfg.c **** 			{0x00u, 0x08u},
 458:Generated_Source\PSoC4/cyfitter_cfg.c **** 			{0x02u, 0x01u},
 459:Generated_Source\PSoC4/cyfitter_cfg.c **** 			{0x03u, 0x08u},
 460:Generated_Source\PSoC4/cyfitter_cfg.c **** 			{0x07u, 0x02u},
 461:Generated_Source\PSoC4/cyfitter_cfg.c **** 			{0x08u, 0x04u},
 462:Generated_Source\PSoC4/cyfitter_cfg.c **** 			{0x0Au, 0x88u},
 463:Generated_Source\PSoC4/cyfitter_cfg.c **** 			{0x0Bu, 0x01u},
 464:Generated_Source\PSoC4/cyfitter_cfg.c **** 			{0x0Eu, 0x20u},
 465:Generated_Source\PSoC4/cyfitter_cfg.c **** 			{0x10u, 0x20u},
 466:Generated_Source\PSoC4/cyfitter_cfg.c **** 			{0x11u, 0x01u},
 467:Generated_Source\PSoC4/cyfitter_cfg.c **** 			{0x12u, 0x04u},
 468:Generated_Source\PSoC4/cyfitter_cfg.c **** 			{0x15u, 0x28u},
 469:Generated_Source\PSoC4/cyfitter_cfg.c **** 			{0x19u, 0x10u},
 470:Generated_Source\PSoC4/cyfitter_cfg.c **** 			{0x1Bu, 0x08u},
 471:Generated_Source\PSoC4/cyfitter_cfg.c **** 			{0x1Eu, 0x20u},
 472:Generated_Source\PSoC4/cyfitter_cfg.c **** 			{0x1Fu, 0x01u},
 473:Generated_Source\PSoC4/cyfitter_cfg.c **** 			{0x21u, 0x08u},
 474:Generated_Source\PSoC4/cyfitter_cfg.c **** 			{0x27u, 0x80u},
 475:Generated_Source\PSoC4/cyfitter_cfg.c **** 			{0x28u, 0x04u},
 476:Generated_Source\PSoC4/cyfitter_cfg.c **** 			{0x29u, 0x10u},
 477:Generated_Source\PSoC4/cyfitter_cfg.c **** 			{0x2Au, 0x05u},
 478:Generated_Source\PSoC4/cyfitter_cfg.c **** 			{0x2Bu, 0x01u},
 479:Generated_Source\PSoC4/cyfitter_cfg.c **** 			{0x30u, 0x20u},
 480:Generated_Source\PSoC4/cyfitter_cfg.c **** 			{0x31u, 0x08u},
 481:Generated_Source\PSoC4/cyfitter_cfg.c **** 			{0x32u, 0x40u},
 482:Generated_Source\PSoC4/cyfitter_cfg.c **** 			{0x36u, 0x08u},
 483:Generated_Source\PSoC4/cyfitter_cfg.c **** 			{0x37u, 0x82u},
 484:Generated_Source\PSoC4/cyfitter_cfg.c **** 			{0x38u, 0x80u},
 485:Generated_Source\PSoC4/cyfitter_cfg.c **** 			{0x39u, 0x29u},
 486:Generated_Source\PSoC4/cyfitter_cfg.c **** 			{0x3Cu, 0x08u},
 487:Generated_Source\PSoC4/cyfitter_cfg.c **** 			{0x48u, 0x02u},
 488:Generated_Source\PSoC4/cyfitter_cfg.c **** 			{0x49u, 0x40u},
 489:Generated_Source\PSoC4/cyfitter_cfg.c **** 			{0x5Du, 0x22u},
 490:Generated_Source\PSoC4/cyfitter_cfg.c **** 			{0x5Eu, 0x40u},
ARM GAS  C:\Users\User\AppData\Local\Temp\cc5PRTKJ.s 			page 19


 491:Generated_Source\PSoC4/cyfitter_cfg.c **** 			{0x5Fu, 0x04u},
 492:Generated_Source\PSoC4/cyfitter_cfg.c **** 			{0x61u, 0x64u},
 493:Generated_Source\PSoC4/cyfitter_cfg.c **** 			{0x67u, 0x02u},
 494:Generated_Source\PSoC4/cyfitter_cfg.c **** 			{0x83u, 0x80u},
 495:Generated_Source\PSoC4/cyfitter_cfg.c **** 			{0xC0u, 0x87u},
 496:Generated_Source\PSoC4/cyfitter_cfg.c **** 			{0xC2u, 0x2Fu},
 497:Generated_Source\PSoC4/cyfitter_cfg.c **** 			{0xC4u, 0x6Eu},
 498:Generated_Source\PSoC4/cyfitter_cfg.c **** 			{0xCAu, 0x0Fu},
 499:Generated_Source\PSoC4/cyfitter_cfg.c **** 			{0xCCu, 0xDEu},
 500:Generated_Source\PSoC4/cyfitter_cfg.c **** 			{0xCEu, 0x4Fu},
 501:Generated_Source\PSoC4/cyfitter_cfg.c **** 			{0xD6u, 0xF0u},
 502:Generated_Source\PSoC4/cyfitter_cfg.c **** 			{0xD8u, 0x1Eu},
 503:Generated_Source\PSoC4/cyfitter_cfg.c **** 			{0x3Au, 0xC0u},
 504:Generated_Source\PSoC4/cyfitter_cfg.c **** 			{0x40u, 0x23u},
 505:Generated_Source\PSoC4/cyfitter_cfg.c **** 			{0x41u, 0x04u},
 506:Generated_Source\PSoC4/cyfitter_cfg.c **** 			{0x42u, 0x60u},
 507:Generated_Source\PSoC4/cyfitter_cfg.c **** 			{0x47u, 0xB0u},
 508:Generated_Source\PSoC4/cyfitter_cfg.c **** 			{0x48u, 0x20u},
 509:Generated_Source\PSoC4/cyfitter_cfg.c **** 			{0x49u, 0xFFu},
 510:Generated_Source\PSoC4/cyfitter_cfg.c **** 			{0x4Au, 0xFFu},
 511:Generated_Source\PSoC4/cyfitter_cfg.c **** 			{0x4Bu, 0xFFu},
 512:Generated_Source\PSoC4/cyfitter_cfg.c **** 			{0x4Cu, 0x03u},
 513:Generated_Source\PSoC4/cyfitter_cfg.c **** 			{0x4Eu, 0x70u},
 514:Generated_Source\PSoC4/cyfitter_cfg.c **** 			{0x4Fu, 0x48u},
 515:Generated_Source\PSoC4/cyfitter_cfg.c **** 			{0x50u, 0x04u},
 516:Generated_Source\PSoC4/cyfitter_cfg.c **** 			{0x58u, 0x04u},
 517:Generated_Source\PSoC4/cyfitter_cfg.c **** 			{0x5Au, 0x04u},
 518:Generated_Source\PSoC4/cyfitter_cfg.c **** 			{0x5Cu, 0x03u},
 519:Generated_Source\PSoC4/cyfitter_cfg.c **** 			{0x5Du, 0x01u},
 520:Generated_Source\PSoC4/cyfitter_cfg.c **** 			{0x5Fu, 0x01u},
 521:Generated_Source\PSoC4/cyfitter_cfg.c **** 			{0x62u, 0xC0u},
 522:Generated_Source\PSoC4/cyfitter_cfg.c **** 			{0x64u, 0x40u},
 523:Generated_Source\PSoC4/cyfitter_cfg.c **** 			{0x65u, 0x02u},
 524:Generated_Source\PSoC4/cyfitter_cfg.c **** 			{0x66u, 0x10u},
 525:Generated_Source\PSoC4/cyfitter_cfg.c **** 			{0x67u, 0x12u},
 526:Generated_Source\PSoC4/cyfitter_cfg.c **** 			{0x68u, 0xC0u},
 527:Generated_Source\PSoC4/cyfitter_cfg.c **** 			{0x69u, 0x02u},
 528:Generated_Source\PSoC4/cyfitter_cfg.c **** 			{0x6Bu, 0x12u},
 529:Generated_Source\PSoC4/cyfitter_cfg.c **** 			{0x6Cu, 0x40u},
 530:Generated_Source\PSoC4/cyfitter_cfg.c **** 			{0x6Du, 0x02u},
 531:Generated_Source\PSoC4/cyfitter_cfg.c **** 			{0x6Eu, 0x40u},
 532:Generated_Source\PSoC4/cyfitter_cfg.c **** 			{0x6Fu, 0x02u},
 533:Generated_Source\PSoC4/cyfitter_cfg.c **** 			{0x00u, 0x08u},
 534:Generated_Source\PSoC4/cyfitter_cfg.c **** 			{0x01u, 0x41u},
 535:Generated_Source\PSoC4/cyfitter_cfg.c **** 			{0x02u, 0x01u},
 536:Generated_Source\PSoC4/cyfitter_cfg.c **** 			{0x0Au, 0x89u},
 537:Generated_Source\PSoC4/cyfitter_cfg.c **** 			{0x10u, 0x2Au},
 538:Generated_Source\PSoC4/cyfitter_cfg.c **** 			{0x12u, 0x04u},
 539:Generated_Source\PSoC4/cyfitter_cfg.c **** 			{0x13u, 0x01u},
 540:Generated_Source\PSoC4/cyfitter_cfg.c **** 			{0x19u, 0x04u},
 541:Generated_Source\PSoC4/cyfitter_cfg.c **** 			{0x1Au, 0x41u},
 542:Generated_Source\PSoC4/cyfitter_cfg.c **** 			{0x1Bu, 0x70u},
 543:Generated_Source\PSoC4/cyfitter_cfg.c **** 			{0x1Fu, 0x80u},
 544:Generated_Source\PSoC4/cyfitter_cfg.c **** 			{0x20u, 0x0Au},
 545:Generated_Source\PSoC4/cyfitter_cfg.c **** 			{0x21u, 0x14u},
 546:Generated_Source\PSoC4/cyfitter_cfg.c **** 			{0x22u, 0x4Cu},
 547:Generated_Source\PSoC4/cyfitter_cfg.c **** 			{0x23u, 0x2Au},
ARM GAS  C:\Users\User\AppData\Local\Temp\cc5PRTKJ.s 			page 20


 548:Generated_Source\PSoC4/cyfitter_cfg.c **** 			{0x29u, 0x51u},
 549:Generated_Source\PSoC4/cyfitter_cfg.c **** 			{0x30u, 0x28u},
 550:Generated_Source\PSoC4/cyfitter_cfg.c **** 			{0x32u, 0x40u},
 551:Generated_Source\PSoC4/cyfitter_cfg.c **** 			{0x33u, 0x01u},
 552:Generated_Source\PSoC4/cyfitter_cfg.c **** 			{0x39u, 0x29u},
 553:Generated_Source\PSoC4/cyfitter_cfg.c **** 			{0x41u, 0x04u},
 554:Generated_Source\PSoC4/cyfitter_cfg.c **** 			{0x43u, 0x20u},
 555:Generated_Source\PSoC4/cyfitter_cfg.c **** 			{0x47u, 0x2Au},
 556:Generated_Source\PSoC4/cyfitter_cfg.c **** 			{0x48u, 0x05u},
 557:Generated_Source\PSoC4/cyfitter_cfg.c **** 			{0x49u, 0x01u},
 558:Generated_Source\PSoC4/cyfitter_cfg.c **** 			{0x4Au, 0x40u},
 559:Generated_Source\PSoC4/cyfitter_cfg.c **** 			{0x4Bu, 0x04u},
 560:Generated_Source\PSoC4/cyfitter_cfg.c **** 			{0x4Fu, 0x20u},
 561:Generated_Source\PSoC4/cyfitter_cfg.c **** 			{0x50u, 0x02u},
 562:Generated_Source\PSoC4/cyfitter_cfg.c **** 			{0x51u, 0x20u},
 563:Generated_Source\PSoC4/cyfitter_cfg.c **** 			{0x57u, 0x01u},
 564:Generated_Source\PSoC4/cyfitter_cfg.c **** 			{0x63u, 0x80u},
 565:Generated_Source\PSoC4/cyfitter_cfg.c **** 			{0x68u, 0x28u},
 566:Generated_Source\PSoC4/cyfitter_cfg.c **** 			{0x69u, 0x41u},
 567:Generated_Source\PSoC4/cyfitter_cfg.c **** 			{0x6Bu, 0x01u},
 568:Generated_Source\PSoC4/cyfitter_cfg.c **** 			{0x70u, 0x40u},
 569:Generated_Source\PSoC4/cyfitter_cfg.c **** 			{0x71u, 0x40u},
 570:Generated_Source\PSoC4/cyfitter_cfg.c **** 			{0x73u, 0x01u},
 571:Generated_Source\PSoC4/cyfitter_cfg.c **** 			{0x83u, 0x80u},
 572:Generated_Source\PSoC4/cyfitter_cfg.c **** 			{0x85u, 0x20u},
 573:Generated_Source\PSoC4/cyfitter_cfg.c **** 			{0x86u, 0x40u},
 574:Generated_Source\PSoC4/cyfitter_cfg.c **** 			{0x8Du, 0x02u},
 575:Generated_Source\PSoC4/cyfitter_cfg.c **** 			{0x8Fu, 0x20u},
 576:Generated_Source\PSoC4/cyfitter_cfg.c **** 			{0x94u, 0x80u},
 577:Generated_Source\PSoC4/cyfitter_cfg.c **** 			{0x95u, 0x29u},
 578:Generated_Source\PSoC4/cyfitter_cfg.c **** 			{0x96u, 0xC8u},
 579:Generated_Source\PSoC4/cyfitter_cfg.c **** 			{0x97u, 0x05u},
 580:Generated_Source\PSoC4/cyfitter_cfg.c **** 			{0x99u, 0x10u},
 581:Generated_Source\PSoC4/cyfitter_cfg.c **** 			{0x9Du, 0x26u},
 582:Generated_Source\PSoC4/cyfitter_cfg.c **** 			{0x9Eu, 0x05u},
 583:Generated_Source\PSoC4/cyfitter_cfg.c **** 			{0x9Fu, 0x02u},
 584:Generated_Source\PSoC4/cyfitter_cfg.c **** 			{0xA4u, 0x26u},
 585:Generated_Source\PSoC4/cyfitter_cfg.c **** 			{0xA5u, 0x20u},
 586:Generated_Source\PSoC4/cyfitter_cfg.c **** 			{0xA6u, 0x08u},
 587:Generated_Source\PSoC4/cyfitter_cfg.c **** 			{0xA7u, 0x01u},
 588:Generated_Source\PSoC4/cyfitter_cfg.c **** 			{0xAEu, 0x10u},
 589:Generated_Source\PSoC4/cyfitter_cfg.c **** 			{0xB1u, 0x08u},
 590:Generated_Source\PSoC4/cyfitter_cfg.c **** 			{0xC0u, 0x0Du},
 591:Generated_Source\PSoC4/cyfitter_cfg.c **** 			{0xC2u, 0x0Bu},
 592:Generated_Source\PSoC4/cyfitter_cfg.c **** 			{0xC4u, 0x0Fu},
 593:Generated_Source\PSoC4/cyfitter_cfg.c **** 			{0xCAu, 0x0Du},
 594:Generated_Source\PSoC4/cyfitter_cfg.c **** 			{0xCCu, 0x0Fu},
 595:Generated_Source\PSoC4/cyfitter_cfg.c **** 			{0xCEu, 0x07u},
 596:Generated_Source\PSoC4/cyfitter_cfg.c **** 			{0xD0u, 0xE6u},
 597:Generated_Source\PSoC4/cyfitter_cfg.c **** 			{0xD2u, 0x2Cu},
 598:Generated_Source\PSoC4/cyfitter_cfg.c **** 			{0xD8u, 0x01u},
 599:Generated_Source\PSoC4/cyfitter_cfg.c **** 			{0xE0u, 0x04u},
 600:Generated_Source\PSoC4/cyfitter_cfg.c **** 			{0xEEu, 0x20u},
 601:Generated_Source\PSoC4/cyfitter_cfg.c **** 			{0x5Bu, 0x01u},
 602:Generated_Source\PSoC4/cyfitter_cfg.c **** 			{0x80u, 0x08u},
 603:Generated_Source\PSoC4/cyfitter_cfg.c **** 			{0xD6u, 0x40u},
 604:Generated_Source\PSoC4/cyfitter_cfg.c **** 			{0xE2u, 0x80u},
ARM GAS  C:\Users\User\AppData\Local\Temp\cc5PRTKJ.s 			page 21


 605:Generated_Source\PSoC4/cyfitter_cfg.c **** 			{0x2Fu, 0x02u},
 606:Generated_Source\PSoC4/cyfitter_cfg.c **** 			{0x54u, 0x08u},
 607:Generated_Source\PSoC4/cyfitter_cfg.c **** 			{0x58u, 0x40u},
 608:Generated_Source\PSoC4/cyfitter_cfg.c **** 			{0x6Fu, 0x20u},
 609:Generated_Source\PSoC4/cyfitter_cfg.c **** 			{0x83u, 0x22u},
 610:Generated_Source\PSoC4/cyfitter_cfg.c **** 			{0x98u, 0x40u},
 611:Generated_Source\PSoC4/cyfitter_cfg.c **** 			{0xA0u, 0x08u},
 612:Generated_Source\PSoC4/cyfitter_cfg.c **** 			{0xACu, 0x40u},
 613:Generated_Source\PSoC4/cyfitter_cfg.c **** 			{0xB3u, 0x01u},
 614:Generated_Source\PSoC4/cyfitter_cfg.c **** 			{0xCAu, 0x20u},
 615:Generated_Source\PSoC4/cyfitter_cfg.c **** 			{0xD4u, 0xC0u},
 616:Generated_Source\PSoC4/cyfitter_cfg.c **** 			{0xDAu, 0x80u},
 617:Generated_Source\PSoC4/cyfitter_cfg.c **** 			{0xE0u, 0x20u},
 618:Generated_Source\PSoC4/cyfitter_cfg.c **** 			{0xE6u, 0x20u},
 619:Generated_Source\PSoC4/cyfitter_cfg.c **** 			{0xEEu, 0x10u},
 620:Generated_Source\PSoC4/cyfitter_cfg.c **** 			{0x40u, 0x20u},
 621:Generated_Source\PSoC4/cyfitter_cfg.c **** 			{0x6Au, 0x40u},
 622:Generated_Source\PSoC4/cyfitter_cfg.c **** 			{0xD0u, 0x02u},
 623:Generated_Source\PSoC4/cyfitter_cfg.c **** 			{0xDAu, 0x02u},
 624:Generated_Source\PSoC4/cyfitter_cfg.c **** 			{0x14u, 0x20u},
 625:Generated_Source\PSoC4/cyfitter_cfg.c **** 			{0x82u, 0x40u},
 626:Generated_Source\PSoC4/cyfitter_cfg.c **** 			{0x96u, 0x40u},
 627:Generated_Source\PSoC4/cyfitter_cfg.c **** 			{0x9Cu, 0x20u},
 628:Generated_Source\PSoC4/cyfitter_cfg.c **** 			{0xC4u, 0x04u},
 629:Generated_Source\PSoC4/cyfitter_cfg.c **** 			{0x01u, 0x0Au},
 630:Generated_Source\PSoC4/cyfitter_cfg.c **** 			{0x10u, 0x0Au},
 631:Generated_Source\PSoC4/cyfitter_cfg.c **** 		};
 632:Generated_Source\PSoC4/cyfitter_cfg.c **** 
 633:Generated_Source\PSoC4/cyfitter_cfg.c **** 
 634:Generated_Source\PSoC4/cyfitter_cfg.c **** 
 635:Generated_Source\PSoC4/cyfitter_cfg.c **** 		CYPACKED typedef struct {
 636:Generated_Source\PSoC4/cyfitter_cfg.c **** 			void CYFAR *address;
 637:Generated_Source\PSoC4/cyfitter_cfg.c **** 			uint16 size;
 638:Generated_Source\PSoC4/cyfitter_cfg.c **** 		} CYPACKED_ATTR cfg_memset_t;
 639:Generated_Source\PSoC4/cyfitter_cfg.c **** 
 640:Generated_Source\PSoC4/cyfitter_cfg.c **** 
 641:Generated_Source\PSoC4/cyfitter_cfg.c **** 		CYPACKED typedef struct {
 642:Generated_Source\PSoC4/cyfitter_cfg.c **** 			void CYFAR *dest;
 643:Generated_Source\PSoC4/cyfitter_cfg.c **** 			const void CYCODE *src;
 644:Generated_Source\PSoC4/cyfitter_cfg.c **** 			uint16 size;
 645:Generated_Source\PSoC4/cyfitter_cfg.c **** 		} CYPACKED_ATTR cfg_memcpy_t;
 646:Generated_Source\PSoC4/cyfitter_cfg.c **** 
 647:Generated_Source\PSoC4/cyfitter_cfg.c **** 		static const cfg_memset_t CYCODE cfg_memset_list[] = {
 648:Generated_Source\PSoC4/cyfitter_cfg.c **** 			/* address, size */
 649:Generated_Source\PSoC4/cyfitter_cfg.c **** 			{(void CYFAR *)(CYDEV_UDB_P0_U0_BASE), 640u},
 650:Generated_Source\PSoC4/cyfitter_cfg.c **** 			{(void CYFAR *)(CYDEV_UDB_P1_ROUTE_BASE), 256u},
 651:Generated_Source\PSoC4/cyfitter_cfg.c **** 			{(void CYFAR *)(CYDEV_UDB_DSI0_BASE), 1024u},
 652:Generated_Source\PSoC4/cyfitter_cfg.c **** 		};
 653:Generated_Source\PSoC4/cyfitter_cfg.c **** 
 654:Generated_Source\PSoC4/cyfitter_cfg.c **** 		/* UDB_0_0_0_CONFIG Address: CYDEV_UDB_P1_U1_BASE Size (bytes): 128 */
 655:Generated_Source\PSoC4/cyfitter_cfg.c **** 		static const uint8 CYCODE BS_UDB_0_0_0_CONFIG_VAL[] = {
 656:Generated_Source\PSoC4/cyfitter_cfg.c **** 			0x41u, 0x1Au, 0x00u, 0x00u, 0x12u, 0xC1u, 0x2Cu, 0x38u, 0x00u, 0x9Cu, 0x00u, 0x03u, 0x00u, 0x00u
 657:Generated_Source\PSoC4/cyfitter_cfg.c **** 			0x06u, 0x18u, 0x38u, 0x02u, 0x00u, 0x02u, 0x00u, 0x18u, 0x2Au, 0x18u, 0x14u, 0x02u, 0x04u, 0x33u
 658:Generated_Source\PSoC4/cyfitter_cfg.c **** 			0x41u, 0x82u, 0x00u, 0x00u, 0x41u, 0x00u, 0x00u, 0x00u, 0x41u, 0x18u, 0x00u, 0x00u, 0x00u, 0x1Au
 659:Generated_Source\PSoC4/cyfitter_cfg.c **** 			0x20u, 0x00u, 0x40u, 0x0Fu, 0x01u, 0xE0u, 0x1Eu, 0x13u, 0x00u, 0x00u, 0x80u, 0x28u, 0x00u, 0x00u
 660:Generated_Source\PSoC4/cyfitter_cfg.c **** 			0x36u, 0x05u, 0x20u, 0x00u, 0x00u, 0xCEu, 0xF0u, 0xD0u, 0x2Bu, 0xFFu, 0xFFu, 0xFFu, 0x22u, 0x00u
 661:Generated_Source\PSoC4/cyfitter_cfg.c **** 			0x04u, 0x00u, 0x00u, 0x00u, 0x00u, 0x00u, 0x02u, 0x2Cu, 0x04u, 0x04u, 0x04u, 0x04u, 0x11u, 0x11u
ARM GAS  C:\Users\User\AppData\Local\Temp\cc5PRTKJ.s 			page 22


 662:Generated_Source\PSoC4/cyfitter_cfg.c **** 			0x00u, 0x00u, 0xC0u, 0x00u, 0x40u, 0x02u, 0x10u, 0x12u, 0xC0u, 0x02u, 0x00u, 0x12u, 0x40u, 0x02u
 663:Generated_Source\PSoC4/cyfitter_cfg.c **** 			0x00u, 0x00u, 0x00u, 0x00u, 0x00u, 0x00u, 0x00u, 0x00u, 0x00u, 0x00u, 0x00u, 0x00u, 0x00u, 0x00u
 664:Generated_Source\PSoC4/cyfitter_cfg.c **** 
 665:Generated_Source\PSoC4/cyfitter_cfg.c **** 		static const cfg_memcpy_t CYCODE cfg_memcpy_list [] = {
 666:Generated_Source\PSoC4/cyfitter_cfg.c **** 			/* dest, src, size */
 667:Generated_Source\PSoC4/cyfitter_cfg.c **** 			{(void CYFAR *)(CYDEV_UDB_P1_U1_BASE), BS_UDB_0_0_0_CONFIG_VAL, 128u},
 668:Generated_Source\PSoC4/cyfitter_cfg.c **** 		};
 669:Generated_Source\PSoC4/cyfitter_cfg.c **** 
 670:Generated_Source\PSoC4/cyfitter_cfg.c **** 		uint8 CYDATA i;
 671:Generated_Source\PSoC4/cyfitter_cfg.c **** 
 672:Generated_Source\PSoC4/cyfitter_cfg.c **** 		/* Zero out critical memory blocks before beginning configuration */
 673:Generated_Source\PSoC4/cyfitter_cfg.c **** 		for (i = 0u; i < (sizeof(cfg_memset_list)/sizeof(cfg_memset_list[0])); i++)
 489              		.loc 1 673 0
 490 0180 0024     		movs	r4, #0
 491 0182 0FE0     		b	.L20
 492              	.LVL31:
 493              	.L21:
 494              	.LBB4:
 674:Generated_Source\PSoC4/cyfitter_cfg.c **** 		{
 675:Generated_Source\PSoC4/cyfitter_cfg.c **** 			const cfg_memset_t CYCODE * CYDATA ms = &cfg_memset_list[i];
 676:Generated_Source\PSoC4/cyfitter_cfg.c **** 			CYMEMZERO(ms->address, (size_t)(uint32)(ms->size));
 495              		.loc 1 676 0 discriminator 3
 496 0184 3C48     		ldr	r0, .L24+8
 497 0186 6200     		lsls	r2, r4, #1
 498 0188 1319     		adds	r3, r2, r4
 499 018a 5900     		lsls	r1, r3, #1
 500 018c 0B00     		movs	r3, r1
 501 018e 4118     		adds	r1, r0, r1
 502 0190 8988     		ldrh	r1, [r1, #4]
 503 0192 1A5A     		ldrh	r2, [r3, r0]
 504 0194 C318     		adds	r3, r0, r3
 505 0196 5888     		ldrh	r0, [r3, #2]
 506 0198 0004     		lsls	r0, r0, #16
 507 019a 1043     		orrs	r0, r2
 508 019c FFF7FEFF 		bl	CYMEMZERO
 509              	.LVL32:
 510              	.LBE4:
 673:Generated_Source\PSoC4/cyfitter_cfg.c **** 		{
 511              		.loc 1 673 0 discriminator 3
 512 01a0 0134     		adds	r4, r4, #1
 513              	.LVL33:
 514 01a2 E4B2     		uxtb	r4, r4
 515              	.LVL34:
 516              	.L20:
 673:Generated_Source\PSoC4/cyfitter_cfg.c **** 		{
 517              		.loc 1 673 0 is_stmt 0 discriminator 1
 518 01a4 022C     		cmp	r4, #2
 519 01a6 EDD9     		bls	.L21
 520 01a8 0024     		movs	r4, #0
 521              	.LVL35:
 522 01aa 11E0     		b	.L22
 523              	.LVL36:
 524              	.L23:
 525              	.LBB5:
 677:Generated_Source\PSoC4/cyfitter_cfg.c **** 		}
 678:Generated_Source\PSoC4/cyfitter_cfg.c **** 
 679:Generated_Source\PSoC4/cyfitter_cfg.c **** 		/* Copy device configuration data into registers */
ARM GAS  C:\Users\User\AppData\Local\Temp\cc5PRTKJ.s 			page 23


 680:Generated_Source\PSoC4/cyfitter_cfg.c **** 		for (i = 0u; i < (sizeof(cfg_memcpy_list)/sizeof(cfg_memcpy_list[0])); i++)
 681:Generated_Source\PSoC4/cyfitter_cfg.c **** 		{
 682:Generated_Source\PSoC4/cyfitter_cfg.c **** 			const cfg_memcpy_t CYCODE * CYDATA mc = &cfg_memcpy_list[i];
 683:Generated_Source\PSoC4/cyfitter_cfg.c **** 			void * CYDATA destPtr = mc->dest;
 526              		.loc 1 683 0 is_stmt 1 discriminator 3
 527 01ac 324E     		ldr	r6, .L24+8
 528 01ae A200     		lsls	r2, r4, #2
 529 01b0 1319     		adds	r3, r2, r4
 530 01b2 5900     		lsls	r1, r3, #1
 531 01b4 7118     		adds	r1, r6, r1
 532 01b6 8D8A     		ldrh	r5, [r1, #20]
 533 01b8 C88A     		ldrh	r0, [r1, #22]
 534 01ba 0004     		lsls	r0, r0, #16
 535 01bc 2843     		orrs	r0, r5
 536              	.LVL37:
 684:Generated_Source\PSoC4/cyfitter_cfg.c **** 			const void CYCODE * CYDATA srcPtr = mc->src;
 537              		.loc 1 684 0 discriminator 3
 538 01be 0A8B     		ldrh	r2, [r1, #24]
 539 01c0 498B     		ldrh	r1, [r1, #26]
 540 01c2 0904     		lsls	r1, r1, #16
 541 01c4 1143     		orrs	r1, r2
 542              	.LVL38:
 685:Generated_Source\PSoC4/cyfitter_cfg.c **** 			uint16 CYDATA numBytes = mc->size;
 686:Generated_Source\PSoC4/cyfitter_cfg.c **** 			CYCONFIGCPYCODE(destPtr, srcPtr, numBytes);
 543              		.loc 1 686 0 discriminator 3
 544 01c6 8022     		movs	r2, #128
 545 01c8 FFF7FEFF 		bl	CYCONFIGCPYCODE
 546              	.LVL39:
 547              	.LBE5:
 680:Generated_Source\PSoC4/cyfitter_cfg.c **** 		{
 548              		.loc 1 680 0 discriminator 3
 549 01cc 0134     		adds	r4, r4, #1
 550              	.LVL40:
 551 01ce E4B2     		uxtb	r4, r4
 552              	.LVL41:
 553              	.L22:
 680:Generated_Source\PSoC4/cyfitter_cfg.c **** 		{
 554              		.loc 1 680 0 is_stmt 0 discriminator 1
 555 01d0 002C     		cmp	r4, #0
 556 01d2 EBD0     		beq	.L23
 687:Generated_Source\PSoC4/cyfitter_cfg.c **** 		}
 688:Generated_Source\PSoC4/cyfitter_cfg.c **** 
 689:Generated_Source\PSoC4/cyfitter_cfg.c **** 		cfg_write_bytes32(cy_cfg_addr_table, cy_cfg_data_table);
 557              		.loc 1 689 0 is_stmt 1
 558 01d4 2849     		ldr	r1, .L24+8
 559 01d6 2031     		adds	r1, r1, #32
 560 01d8 2848     		ldr	r0, .L24+12
 561 01da FFF7FEFF 		bl	cfg_write_bytes32
 562              	.LVL42:
 690:Generated_Source\PSoC4/cyfitter_cfg.c **** 
 691:Generated_Source\PSoC4/cyfitter_cfg.c **** 		/* HSIOM Starting address: CYDEV_HSIOM_BASE */
 692:Generated_Source\PSoC4/cyfitter_cfg.c **** 		CY_SET_REG32((void *)(CYDEV_HSIOM_BASE), 0xEE300000u);
 563              		.loc 1 692 0
 564 01de 284A     		ldr	r2, .L24+16
 565 01e0 284B     		ldr	r3, .L24+20
 566 01e2 1A60     		str	r2, [r3]
 693:Generated_Source\PSoC4/cyfitter_cfg.c **** 		CY_SET_REG32((void *)(CYREG_HSIOM_PORT_SEL1), 0x00993003u);
ARM GAS  C:\Users\User\AppData\Local\Temp\cc5PRTKJ.s 			page 24


 567              		.loc 1 693 0
 568 01e4 284A     		ldr	r2, .L24+24
 569 01e6 294B     		ldr	r3, .L24+28
 570 01e8 1A60     		str	r2, [r3]
 694:Generated_Source\PSoC4/cyfitter_cfg.c **** 
 695:Generated_Source\PSoC4/cyfitter_cfg.c **** 		/* UDB_PA_0 Starting address: CYDEV_UDB_PA0_BASE */
 696:Generated_Source\PSoC4/cyfitter_cfg.c **** 		CY_SET_REG32((void *)(CYDEV_UDB_PA0_BASE), 0x00990000u);
 571              		.loc 1 696 0
 572 01ea 9923     		movs	r3, #153
 573 01ec 1B04     		lsls	r3, r3, #16
 574 01ee 284A     		ldr	r2, .L24+32
 575 01f0 1360     		str	r3, [r2]
 697:Generated_Source\PSoC4/cyfitter_cfg.c **** 		CY_SET_REG32((void *)(CYREG_UDB_PA0_CFG8), 0x51000000u);
 576              		.loc 1 697 0
 577 01f2 A221     		movs	r1, #162
 578 01f4 C905     		lsls	r1, r1, #23
 579 01f6 274A     		ldr	r2, .L24+36
 580 01f8 1160     		str	r1, [r2]
 698:Generated_Source\PSoC4/cyfitter_cfg.c **** 
 699:Generated_Source\PSoC4/cyfitter_cfg.c **** 		/* UDB_PA_1 Starting address: CYDEV_UDB_PA1_BASE */
 700:Generated_Source\PSoC4/cyfitter_cfg.c **** 		CY_SET_REG32((void *)(CYDEV_UDB_PA1_BASE), 0x00990000u);
 581              		.loc 1 700 0
 582 01fa 274A     		ldr	r2, .L24+40
 583 01fc 1360     		str	r3, [r2]
 701:Generated_Source\PSoC4/cyfitter_cfg.c **** 		CY_SET_REG32((void *)(CYREG_UDB_PA1_CFG8), 0x00810000u);
 584              		.loc 1 701 0
 585 01fe 8121     		movs	r1, #129
 586 0200 0904     		lsls	r1, r1, #16
 587 0202 264A     		ldr	r2, .L24+44
 588 0204 1160     		str	r1, [r2]
 702:Generated_Source\PSoC4/cyfitter_cfg.c **** 
 703:Generated_Source\PSoC4/cyfitter_cfg.c **** 		/* UDB_PA_3 Starting address: CYDEV_UDB_PA3_BASE */
 704:Generated_Source\PSoC4/cyfitter_cfg.c **** 		CY_SET_REG32((void *)(CYDEV_UDB_PA3_BASE), 0x00990000u);
 589              		.loc 1 704 0
 590 0206 264A     		ldr	r2, .L24+48
 591 0208 1360     		str	r3, [r2]
 705:Generated_Source\PSoC4/cyfitter_cfg.c **** 
 706:Generated_Source\PSoC4/cyfitter_cfg.c **** 		/* TCPWM_CNT0 Starting address: CYDEV_TCPWM_CNT0_TR_CTRL0 */
 707:Generated_Source\PSoC4/cyfitter_cfg.c **** 		CY_SET_REG32((void *)(CYREG_TCPWM_CNT0_TR_CTRL0), 0x000000E8u);
 592              		.loc 1 707 0
 593 020a E822     		movs	r2, #232
 594 020c 254B     		ldr	r3, .L24+52
 595 020e 1A60     		str	r2, [r3]
 708:Generated_Source\PSoC4/cyfitter_cfg.c **** 
 709:Generated_Source\PSoC4/cyfitter_cfg.c **** 		/* INT_SELECT Starting address: CYDEV_CPUSS_INT_SEL */
 710:Generated_Source\PSoC4/cyfitter_cfg.c **** 		CY_SET_REG32((void *)(CYREG_CPUSS_INT_SEL), 0x00000002u);
 596              		.loc 1 710 0
 597 0210 0223     		movs	r3, #2
 598 0212 254A     		ldr	r2, .L24+56
 599 0214 1360     		str	r3, [r2]
 711:Generated_Source\PSoC4/cyfitter_cfg.c **** 
 712:Generated_Source\PSoC4/cyfitter_cfg.c **** 		/* INT_CONFIG Starting address: CYDEV_UDB_INT_CFG */
 713:Generated_Source\PSoC4/cyfitter_cfg.c **** 		CY_SET_REG32((void *)(CYREG_UDB_INT_CFG), 0x00000002u);
 600              		.loc 1 713 0
 601 0216 254A     		ldr	r2, .L24+60
 602 0218 1360     		str	r3, [r2]
 714:Generated_Source\PSoC4/cyfitter_cfg.c **** 
ARM GAS  C:\Users\User\AppData\Local\Temp\cc5PRTKJ.s 			page 25


 715:Generated_Source\PSoC4/cyfitter_cfg.c **** 		/* Enable UDB array and digital routing */
 716:Generated_Source\PSoC4/cyfitter_cfg.c **** 		CY_SET_XTND_REG8((void *)CYREG_UDB_UDBIF_WAIT_CFG, (uint8)((CY_GET_XTND_REG8((void *)CYREG_UDB_UD
 603              		.loc 1 716 0
 604 021a 2549     		ldr	r1, .L24+64
 605 021c 0B78     		ldrb	r3, [r1]
 606 021e 3C22     		movs	r2, #60
 607 0220 9343     		bics	r3, r2
 608 0222 1422     		movs	r2, #20
 609 0224 1343     		orrs	r3, r2
 610 0226 DBB2     		uxtb	r3, r3
 611 0228 0B70     		strb	r3, [r1]
 717:Generated_Source\PSoC4/cyfitter_cfg.c **** 		CY_SET_XTND_REG8((void *)CYREG_UDB_UDBIF_BANK_CTL, (uint8)(CY_GET_XTND_REG8((void *)CYREG_UDB_UDB
 612              		.loc 1 717 0
 613 022a 224A     		ldr	r2, .L24+68
 614 022c 1178     		ldrb	r1, [r2]
 615 022e 1623     		movs	r3, #22
 616 0230 0B43     		orrs	r3, r1
 617 0232 DBB2     		uxtb	r3, r3
 618 0234 1370     		strb	r3, [r2]
 619              	.LBE3:
 718:Generated_Source\PSoC4/cyfitter_cfg.c **** 	}
 719:Generated_Source\PSoC4/cyfitter_cfg.c **** 
 720:Generated_Source\PSoC4/cyfitter_cfg.c **** 	/* Perform second pass device configuration. These items must be configured in specific order afte
 721:Generated_Source\PSoC4/cyfitter_cfg.c **** 	/* IOPINS0_0 Starting address: CYDEV_GPIO_PRT0_BASE */
 722:Generated_Source\PSoC4/cyfitter_cfg.c **** 	CY_SET_REG32((void *)(CYDEV_GPIO_PRT0_BASE), 0x00000020u);
 620              		.loc 1 722 0
 621 0236 2023     		movs	r3, #32
 622 0238 1F4A     		ldr	r2, .L24+72
 623 023a 1360     		str	r3, [r2]
 723:Generated_Source\PSoC4/cyfitter_cfg.c **** 	CY_SET_REG32((void *)(CYREG_GPIO_PRT0_PC), 0x00DB0000u);
 624              		.loc 1 723 0
 625 023c DB21     		movs	r1, #219
 626 023e 0904     		lsls	r1, r1, #16
 627 0240 1E4A     		ldr	r2, .L24+76
 628 0242 1160     		str	r1, [r2]
 724:Generated_Source\PSoC4/cyfitter_cfg.c **** 
 725:Generated_Source\PSoC4/cyfitter_cfg.c **** 	/* IOPINS0_1 Starting address: CYDEV_GPIO_PRT1_BASE */
 726:Generated_Source\PSoC4/cyfitter_cfg.c **** 	CY_SET_REG32((void *)(CYDEV_GPIO_PRT1_BASE), 0x00000029u);
 629              		.loc 1 726 0
 630 0244 2921     		movs	r1, #41
 631 0246 1E4A     		ldr	r2, .L24+80
 632 0248 1160     		str	r1, [r2]
 727:Generated_Source\PSoC4/cyfitter_cfg.c **** 	CY_SET_REG32((void *)(CYREG_GPIO_PRT1_PC), 0x00031C06u);
 633              		.loc 1 727 0
 634 024a 1E49     		ldr	r1, .L24+84
 635 024c 1E4A     		ldr	r2, .L24+88
 636 024e 1160     		str	r1, [r2]
 728:Generated_Source\PSoC4/cyfitter_cfg.c **** 	CY_SET_REG32((void *)(CYREG_GPIO_PRT1_PC2), 0x00000020u);
 637              		.loc 1 728 0
 638 0250 1E4A     		ldr	r2, .L24+92
 639 0252 1360     		str	r3, [r2]
 729:Generated_Source\PSoC4/cyfitter_cfg.c **** 
 730:Generated_Source\PSoC4/cyfitter_cfg.c **** 	/* IOPINS0_3 Starting address: CYDEV_GPIO_PRT3_BASE */
 731:Generated_Source\PSoC4/cyfitter_cfg.c **** 	CY_SET_REG32((void *)(CYDEV_GPIO_PRT3_BASE), 0x00000001u);
 640              		.loc 1 731 0
 641 0254 1F3B     		subs	r3, r3, #31
 642 0256 1E4A     		ldr	r2, .L24+96
ARM GAS  C:\Users\User\AppData\Local\Temp\cc5PRTKJ.s 			page 26


 643 0258 1360     		str	r3, [r2]
 732:Generated_Source\PSoC4/cyfitter_cfg.c **** 	CY_SET_REG32((void *)(CYREG_GPIO_PRT3_PC), 0x00000248u);
 644              		.loc 1 732 0
 645 025a 9221     		movs	r1, #146
 646 025c 8900     		lsls	r1, r1, #2
 647 025e 1D4A     		ldr	r2, .L24+100
 648 0260 1160     		str	r1, [r2]
 733:Generated_Source\PSoC4/cyfitter_cfg.c **** 	CY_SET_REG32((void *)(CYREG_GPIO_PRT3_PC2), 0x00000001u);
 649              		.loc 1 733 0
 650 0262 1D4A     		ldr	r2, .L24+104
 651 0264 1360     		str	r3, [r2]
 734:Generated_Source\PSoC4/cyfitter_cfg.c **** 
 735:Generated_Source\PSoC4/cyfitter_cfg.c **** 
 736:Generated_Source\PSoC4/cyfitter_cfg.c **** 	/* Setup clocks based on selections from Clock DWR */
 737:Generated_Source\PSoC4/cyfitter_cfg.c **** 	ClockSetup();
 652              		.loc 1 737 0
 653 0266 FFF7CBFE 		bl	ClockSetup
 654              	.LVL43:
 738:Generated_Source\PSoC4/cyfitter_cfg.c **** 
 739:Generated_Source\PSoC4/cyfitter_cfg.c **** 	/* Perform basic analog initialization to defaults */
 740:Generated_Source\PSoC4/cyfitter_cfg.c **** 	AnalogSetDefault();
 655              		.loc 1 740 0
 656 026a FFF7FEFF 		bl	AnalogSetDefault
 657              	.LVL44:
 741:Generated_Source\PSoC4/cyfitter_cfg.c **** 
 742:Generated_Source\PSoC4/cyfitter_cfg.c **** }
 658              		.loc 1 742 0
 659              		@ sp needed
 660              	.LVL45:
 661 026e 70BD     		pop	{r4, r5, r6, pc}
 662              	.L25:
 663              		.align	2
 664              	.L24:
 665 0270 6CF02E40 		.word	1076818028
 666 0274 1C700F40 		.word	1074753564
 667 0278 00000000 		.word	.LANCHOR0
 668 027c 00020000 		.word	.LANCHOR1
 669 0280 000030EE 		.word	-298844160
 670 0284 00000240 		.word	1073872896
 671 0288 03309900 		.word	10039299
 672 028c 00010240 		.word	1073873152
 673 0290 00500F40 		.word	1074745344
 674 0294 08500F40 		.word	1074745352
 675 0298 10500F40 		.word	1074745360
 676 029c 18500F40 		.word	1074745368
 677 02a0 30500F40 		.word	1074745392
 678 02a4 20012040 		.word	1075839264
 679 02a8 20001040 		.word	1074790432
 680 02ac 00800F40 		.word	1074757632
 681 02b0 01700F40 		.word	1074753537
 682 02b4 00700F40 		.word	1074753536
 683 02b8 00000440 		.word	1074003968
 684 02bc 08000440 		.word	1074003976
 685 02c0 00010440 		.word	1074004224
 686 02c4 061C0300 		.word	203782
 687 02c8 08010440 		.word	1074004232
 688 02cc 18010440 		.word	1074004248
ARM GAS  C:\Users\User\AppData\Local\Temp\cc5PRTKJ.s 			page 27


 689 02d0 00030440 		.word	1074004736
 690 02d4 08030440 		.word	1074004744
 691 02d8 18030440 		.word	1074004760
 692              		.cfi_endproc
 693              	.LFE9:
 694              		.size	cyfitter_cfg, .-cyfitter_cfg
 695              		.section	.rodata
 696              		.align	2
 697              		.set	.LANCHOR0,. + 0
 698              		.set	.LANCHOR1,. + 512
 699              		.type	cfg_memset_list.4927, %object
 700              		.size	cfg_memset_list.4927, 18
 701              	cfg_memset_list.4927:
 702 0000 00300F40 		.word	1074737152
 703 0004 8002     		.short	640
 704 0006 00330F40 		.4byte	1074737920
 705 000a 0001     		.short	256
 706 000c 00400F40 		.word	1074741248
 707 0010 0004     		.short	1024
 708 0012 0000     		.space	2
 709              		.type	cfg_memcpy_list.4929, %object
 710              		.size	cfg_memcpy_list.4929, 10
 711              	cfg_memcpy_list.4929:
 712 0014 80320F40 		.word	1074737792
 713 0018 28020000 		.word	BS_UDB_0_0_0_CONFIG_VAL.4928
 714 001c 8000     		.short	128
 715 001e 0000     		.space	2
 716              		.type	cy_cfg_data_table.4917, %object
 717              		.size	cy_cfg_data_table.4917, 480
 718              	cy_cfg_data_table.4917:
 719 0020 83       		.byte	-125
 720 0021 1F       		.byte	31
 721 0022 01       		.byte	1
 722 0023 04       		.byte	4
 723 0024 04       		.byte	4
 724 0025 72       		.byte	114
 725 0026 05       		.byte	5
 726 0027 0A       		.byte	10
 727 0028 06       		.byte	6
 728 0029 08       		.byte	8
 729 002a 07       		.byte	7
 730 002b 10       		.byte	16
 731 002c 08       		.byte	8
 732 002d 02       		.byte	2
 733 002e 09       		.byte	9
 734 002f 56       		.byte	86
 735 0030 0A       		.byte	10
 736 0031 0D       		.byte	13
 737 0032 0B       		.byte	11
 738 0033 09       		.byte	9
 739 0034 0C       		.byte	12
 740 0035 4D       		.byte	77
 741 0036 0D       		.byte	13
 742 0037 04       		.byte	4
 743 0038 10       		.byte	16
 744 0039 01       		.byte	1
 745 003a 12       		.byte	18
ARM GAS  C:\Users\User\AppData\Local\Temp\cc5PRTKJ.s 			page 28


 746 003b 32       		.byte	50
 747 003c 14       		.byte	20
 748 003d 10       		.byte	16
 749 003e 15       		.byte	21
 750 003f 01       		.byte	1
 751 0040 16       		.byte	22
 752 0041 60       		.byte	96
 753 0042 18       		.byte	24
 754 0043 12       		.byte	18
 755 0044 19       		.byte	25
 756 0045 04       		.byte	4
 757 0046 1A       		.byte	26
 758 0047 64       		.byte	100
 759 0048 1C       		.byte	28
 760 0049 4D       		.byte	77
 761 004a 1D       		.byte	29
 762 004b 07       		.byte	7
 763 004c 1F       		.byte	31
 764 004d 38       		.byte	56
 765 004e 20       		.byte	32
 766 004f 4D       		.byte	77
 767 0050 21       		.byte	33
 768 0051 04       		.byte	4
 769 0052 24       		.byte	36
 770 0053 4D       		.byte	77
 771 0054 27       		.byte	39
 772 0055 04       		.byte	4
 773 0056 28       		.byte	40
 774 0057 0D       		.byte	13
 775 0058 29       		.byte	41
 776 0059 04       		.byte	4
 777 005a 2A       		.byte	42
 778 005b 40       		.byte	64
 779 005c 2D       		.byte	45
 780 005d 60       		.byte	96
 781 005e 32       		.byte	50
 782 005f 0F       		.byte	15
 783 0060 33       		.byte	51
 784 0061 7F       		.byte	127
 785 0062 34       		.byte	52
 786 0063 70       		.byte	112
 787 0064 39       		.byte	57
 788 0065 08       		.byte	8
 789 0066 3A       		.byte	58
 790 0067 28       		.byte	40
 791 0068 54       		.byte	84
 792 0069 40       		.byte	64
 793 006a 58       		.byte	88
 794 006b 04       		.byte	4
 795 006c 59       		.byte	89
 796 006d 04       		.byte	4
 797 006e 5B       		.byte	91
 798 006f 04       		.byte	4
 799 0070 5C       		.byte	92
 800 0071 11       		.byte	17
 801 0072 5D       		.byte	93
 802 0073 10       		.byte	16
ARM GAS  C:\Users\User\AppData\Local\Temp\cc5PRTKJ.s 			page 29


 803 0074 5F       		.byte	95
 804 0075 01       		.byte	1
 805 0076 87       		.byte	-121
 806 0077 03       		.byte	3
 807 0078 8C       		.byte	-116
 808 0079 07       		.byte	7
 809 007a 8E       		.byte	-114
 810 007b 08       		.byte	8
 811 007c 91       		.byte	-111
 812 007d 01       		.byte	1
 813 007e 94       		.byte	-108
 814 007f 1C       		.byte	28
 815 0080 97       		.byte	-105
 816 0081 03       		.byte	3
 817 0082 9F       		.byte	-97
 818 0083 02       		.byte	2
 819 0084 A4       		.byte	-92
 820 0085 0B       		.byte	11
 821 0086 A6       		.byte	-90
 822 0087 14       		.byte	20
 823 0088 A8       		.byte	-88
 824 0089 09       		.byte	9
 825 008a AA       		.byte	-86
 826 008b 12       		.byte	18
 827 008c B0       		.byte	-80
 828 008d 01       		.byte	1
 829 008e B1       		.byte	-79
 830 008f 03       		.byte	3
 831 0090 B2       		.byte	-78
 832 0091 1E       		.byte	30
 833 0092 B8       		.byte	-72
 834 0093 08       		.byte	8
 835 0094 BE       		.byte	-66
 836 0095 01       		.byte	1
 837 0096 D4       		.byte	-44
 838 0097 09       		.byte	9
 839 0098 D8       		.byte	-40
 840 0099 04       		.byte	4
 841 009a D9       		.byte	-39
 842 009b 04       		.byte	4
 843 009c DB       		.byte	-37
 844 009d 04       		.byte	4
 845 009e DC       		.byte	-36
 846 009f 11       		.byte	17
 847 00a0 DD       		.byte	-35
 848 00a1 10       		.byte	16
 849 00a2 DF       		.byte	-33
 850 00a3 01       		.byte	1
 851 00a4 00       		.byte	0
 852 00a5 08       		.byte	8
 853 00a6 02       		.byte	2
 854 00a7 01       		.byte	1
 855 00a8 03       		.byte	3
 856 00a9 08       		.byte	8
 857 00aa 07       		.byte	7
 858 00ab 02       		.byte	2
 859 00ac 08       		.byte	8
ARM GAS  C:\Users\User\AppData\Local\Temp\cc5PRTKJ.s 			page 30


 860 00ad 04       		.byte	4
 861 00ae 0A       		.byte	10
 862 00af 88       		.byte	-120
 863 00b0 0B       		.byte	11
 864 00b1 01       		.byte	1
 865 00b2 0E       		.byte	14
 866 00b3 20       		.byte	32
 867 00b4 10       		.byte	16
 868 00b5 20       		.byte	32
 869 00b6 11       		.byte	17
 870 00b7 01       		.byte	1
 871 00b8 12       		.byte	18
 872 00b9 04       		.byte	4
 873 00ba 15       		.byte	21
 874 00bb 28       		.byte	40
 875 00bc 19       		.byte	25
 876 00bd 10       		.byte	16
 877 00be 1B       		.byte	27
 878 00bf 08       		.byte	8
 879 00c0 1E       		.byte	30
 880 00c1 20       		.byte	32
 881 00c2 1F       		.byte	31
 882 00c3 01       		.byte	1
 883 00c4 21       		.byte	33
 884 00c5 08       		.byte	8
 885 00c6 27       		.byte	39
 886 00c7 80       		.byte	-128
 887 00c8 28       		.byte	40
 888 00c9 04       		.byte	4
 889 00ca 29       		.byte	41
 890 00cb 10       		.byte	16
 891 00cc 2A       		.byte	42
 892 00cd 05       		.byte	5
 893 00ce 2B       		.byte	43
 894 00cf 01       		.byte	1
 895 00d0 30       		.byte	48
 896 00d1 20       		.byte	32
 897 00d2 31       		.byte	49
 898 00d3 08       		.byte	8
 899 00d4 32       		.byte	50
 900 00d5 40       		.byte	64
 901 00d6 36       		.byte	54
 902 00d7 08       		.byte	8
 903 00d8 37       		.byte	55
 904 00d9 82       		.byte	-126
 905 00da 38       		.byte	56
 906 00db 80       		.byte	-128
 907 00dc 39       		.byte	57
 908 00dd 29       		.byte	41
 909 00de 3C       		.byte	60
 910 00df 08       		.byte	8
 911 00e0 48       		.byte	72
 912 00e1 02       		.byte	2
 913 00e2 49       		.byte	73
 914 00e3 40       		.byte	64
 915 00e4 5D       		.byte	93
 916 00e5 22       		.byte	34
ARM GAS  C:\Users\User\AppData\Local\Temp\cc5PRTKJ.s 			page 31


 917 00e6 5E       		.byte	94
 918 00e7 40       		.byte	64
 919 00e8 5F       		.byte	95
 920 00e9 04       		.byte	4
 921 00ea 61       		.byte	97
 922 00eb 64       		.byte	100
 923 00ec 67       		.byte	103
 924 00ed 02       		.byte	2
 925 00ee 83       		.byte	-125
 926 00ef 80       		.byte	-128
 927 00f0 C0       		.byte	-64
 928 00f1 87       		.byte	-121
 929 00f2 C2       		.byte	-62
 930 00f3 2F       		.byte	47
 931 00f4 C4       		.byte	-60
 932 00f5 6E       		.byte	110
 933 00f6 CA       		.byte	-54
 934 00f7 0F       		.byte	15
 935 00f8 CC       		.byte	-52
 936 00f9 DE       		.byte	-34
 937 00fa CE       		.byte	-50
 938 00fb 4F       		.byte	79
 939 00fc D6       		.byte	-42
 940 00fd F0       		.byte	-16
 941 00fe D8       		.byte	-40
 942 00ff 1E       		.byte	30
 943 0100 3A       		.byte	58
 944 0101 C0       		.byte	-64
 945 0102 40       		.byte	64
 946 0103 23       		.byte	35
 947 0104 41       		.byte	65
 948 0105 04       		.byte	4
 949 0106 42       		.byte	66
 950 0107 60       		.byte	96
 951 0108 47       		.byte	71
 952 0109 B0       		.byte	-80
 953 010a 48       		.byte	72
 954 010b 20       		.byte	32
 955 010c 49       		.byte	73
 956 010d FF       		.byte	-1
 957 010e 4A       		.byte	74
 958 010f FF       		.byte	-1
 959 0110 4B       		.byte	75
 960 0111 FF       		.byte	-1
 961 0112 4C       		.byte	76
 962 0113 03       		.byte	3
 963 0114 4E       		.byte	78
 964 0115 70       		.byte	112
 965 0116 4F       		.byte	79
 966 0117 48       		.byte	72
 967 0118 50       		.byte	80
 968 0119 04       		.byte	4
 969 011a 58       		.byte	88
 970 011b 04       		.byte	4
 971 011c 5A       		.byte	90
 972 011d 04       		.byte	4
 973 011e 5C       		.byte	92
ARM GAS  C:\Users\User\AppData\Local\Temp\cc5PRTKJ.s 			page 32


 974 011f 03       		.byte	3
 975 0120 5D       		.byte	93
 976 0121 01       		.byte	1
 977 0122 5F       		.byte	95
 978 0123 01       		.byte	1
 979 0124 62       		.byte	98
 980 0125 C0       		.byte	-64
 981 0126 64       		.byte	100
 982 0127 40       		.byte	64
 983 0128 65       		.byte	101
 984 0129 02       		.byte	2
 985 012a 66       		.byte	102
 986 012b 10       		.byte	16
 987 012c 67       		.byte	103
 988 012d 12       		.byte	18
 989 012e 68       		.byte	104
 990 012f C0       		.byte	-64
 991 0130 69       		.byte	105
 992 0131 02       		.byte	2
 993 0132 6B       		.byte	107
 994 0133 12       		.byte	18
 995 0134 6C       		.byte	108
 996 0135 40       		.byte	64
 997 0136 6D       		.byte	109
 998 0137 02       		.byte	2
 999 0138 6E       		.byte	110
 1000 0139 40       		.byte	64
 1001 013a 6F       		.byte	111
 1002 013b 02       		.byte	2
 1003 013c 00       		.byte	0
 1004 013d 08       		.byte	8
 1005 013e 01       		.byte	1
 1006 013f 41       		.byte	65
 1007 0140 02       		.byte	2
 1008 0141 01       		.byte	1
 1009 0142 0A       		.byte	10
 1010 0143 89       		.byte	-119
 1011 0144 10       		.byte	16
 1012 0145 2A       		.byte	42
 1013 0146 12       		.byte	18
 1014 0147 04       		.byte	4
 1015 0148 13       		.byte	19
 1016 0149 01       		.byte	1
 1017 014a 19       		.byte	25
 1018 014b 04       		.byte	4
 1019 014c 1A       		.byte	26
 1020 014d 41       		.byte	65
 1021 014e 1B       		.byte	27
 1022 014f 70       		.byte	112
 1023 0150 1F       		.byte	31
 1024 0151 80       		.byte	-128
 1025 0152 20       		.byte	32
 1026 0153 0A       		.byte	10
 1027 0154 21       		.byte	33
 1028 0155 14       		.byte	20
 1029 0156 22       		.byte	34
 1030 0157 4C       		.byte	76
ARM GAS  C:\Users\User\AppData\Local\Temp\cc5PRTKJ.s 			page 33


 1031 0158 23       		.byte	35
 1032 0159 2A       		.byte	42
 1033 015a 29       		.byte	41
 1034 015b 51       		.byte	81
 1035 015c 30       		.byte	48
 1036 015d 28       		.byte	40
 1037 015e 32       		.byte	50
 1038 015f 40       		.byte	64
 1039 0160 33       		.byte	51
 1040 0161 01       		.byte	1
 1041 0162 39       		.byte	57
 1042 0163 29       		.byte	41
 1043 0164 41       		.byte	65
 1044 0165 04       		.byte	4
 1045 0166 43       		.byte	67
 1046 0167 20       		.byte	32
 1047 0168 47       		.byte	71
 1048 0169 2A       		.byte	42
 1049 016a 48       		.byte	72
 1050 016b 05       		.byte	5
 1051 016c 49       		.byte	73
 1052 016d 01       		.byte	1
 1053 016e 4A       		.byte	74
 1054 016f 40       		.byte	64
 1055 0170 4B       		.byte	75
 1056 0171 04       		.byte	4
 1057 0172 4F       		.byte	79
 1058 0173 20       		.byte	32
 1059 0174 50       		.byte	80
 1060 0175 02       		.byte	2
 1061 0176 51       		.byte	81
 1062 0177 20       		.byte	32
 1063 0178 57       		.byte	87
 1064 0179 01       		.byte	1
 1065 017a 63       		.byte	99
 1066 017b 80       		.byte	-128
 1067 017c 68       		.byte	104
 1068 017d 28       		.byte	40
 1069 017e 69       		.byte	105
 1070 017f 41       		.byte	65
 1071 0180 6B       		.byte	107
 1072 0181 01       		.byte	1
 1073 0182 70       		.byte	112
 1074 0183 40       		.byte	64
 1075 0184 71       		.byte	113
 1076 0185 40       		.byte	64
 1077 0186 73       		.byte	115
 1078 0187 01       		.byte	1
 1079 0188 83       		.byte	-125
 1080 0189 80       		.byte	-128
 1081 018a 85       		.byte	-123
 1082 018b 20       		.byte	32
 1083 018c 86       		.byte	-122
 1084 018d 40       		.byte	64
 1085 018e 8D       		.byte	-115
 1086 018f 02       		.byte	2
 1087 0190 8F       		.byte	-113
ARM GAS  C:\Users\User\AppData\Local\Temp\cc5PRTKJ.s 			page 34


 1088 0191 20       		.byte	32
 1089 0192 94       		.byte	-108
 1090 0193 80       		.byte	-128
 1091 0194 95       		.byte	-107
 1092 0195 29       		.byte	41
 1093 0196 96       		.byte	-106
 1094 0197 C8       		.byte	-56
 1095 0198 97       		.byte	-105
 1096 0199 05       		.byte	5
 1097 019a 99       		.byte	-103
 1098 019b 10       		.byte	16
 1099 019c 9D       		.byte	-99
 1100 019d 26       		.byte	38
 1101 019e 9E       		.byte	-98
 1102 019f 05       		.byte	5
 1103 01a0 9F       		.byte	-97
 1104 01a1 02       		.byte	2
 1105 01a2 A4       		.byte	-92
 1106 01a3 26       		.byte	38
 1107 01a4 A5       		.byte	-91
 1108 01a5 20       		.byte	32
 1109 01a6 A6       		.byte	-90
 1110 01a7 08       		.byte	8
 1111 01a8 A7       		.byte	-89
 1112 01a9 01       		.byte	1
 1113 01aa AE       		.byte	-82
 1114 01ab 10       		.byte	16
 1115 01ac B1       		.byte	-79
 1116 01ad 08       		.byte	8
 1117 01ae C0       		.byte	-64
 1118 01af 0D       		.byte	13
 1119 01b0 C2       		.byte	-62
 1120 01b1 0B       		.byte	11
 1121 01b2 C4       		.byte	-60
 1122 01b3 0F       		.byte	15
 1123 01b4 CA       		.byte	-54
 1124 01b5 0D       		.byte	13
 1125 01b6 CC       		.byte	-52
 1126 01b7 0F       		.byte	15
 1127 01b8 CE       		.byte	-50
 1128 01b9 07       		.byte	7
 1129 01ba D0       		.byte	-48
 1130 01bb E6       		.byte	-26
 1131 01bc D2       		.byte	-46
 1132 01bd 2C       		.byte	44
 1133 01be D8       		.byte	-40
 1134 01bf 01       		.byte	1
 1135 01c0 E0       		.byte	-32
 1136 01c1 04       		.byte	4
 1137 01c2 EE       		.byte	-18
 1138 01c3 20       		.byte	32
 1139 01c4 5B       		.byte	91
 1140 01c5 01       		.byte	1
 1141 01c6 80       		.byte	-128
 1142 01c7 08       		.byte	8
 1143 01c8 D6       		.byte	-42
 1144 01c9 40       		.byte	64
ARM GAS  C:\Users\User\AppData\Local\Temp\cc5PRTKJ.s 			page 35


 1145 01ca E2       		.byte	-30
 1146 01cb 80       		.byte	-128
 1147 01cc 2F       		.byte	47
 1148 01cd 02       		.byte	2
 1149 01ce 54       		.byte	84
 1150 01cf 08       		.byte	8
 1151 01d0 58       		.byte	88
 1152 01d1 40       		.byte	64
 1153 01d2 6F       		.byte	111
 1154 01d3 20       		.byte	32
 1155 01d4 83       		.byte	-125
 1156 01d5 22       		.byte	34
 1157 01d6 98       		.byte	-104
 1158 01d7 40       		.byte	64
 1159 01d8 A0       		.byte	-96
 1160 01d9 08       		.byte	8
 1161 01da AC       		.byte	-84
 1162 01db 40       		.byte	64
 1163 01dc B3       		.byte	-77
 1164 01dd 01       		.byte	1
 1165 01de CA       		.byte	-54
 1166 01df 20       		.byte	32
 1167 01e0 D4       		.byte	-44
 1168 01e1 C0       		.byte	-64
 1169 01e2 DA       		.byte	-38
 1170 01e3 80       		.byte	-128
 1171 01e4 E0       		.byte	-32
 1172 01e5 20       		.byte	32
 1173 01e6 E6       		.byte	-26
 1174 01e7 20       		.byte	32
 1175 01e8 EE       		.byte	-18
 1176 01e9 10       		.byte	16
 1177 01ea 40       		.byte	64
 1178 01eb 20       		.byte	32
 1179 01ec 6A       		.byte	106
 1180 01ed 40       		.byte	64
 1181 01ee D0       		.byte	-48
 1182 01ef 02       		.byte	2
 1183 01f0 DA       		.byte	-38
 1184 01f1 02       		.byte	2
 1185 01f2 14       		.byte	20
 1186 01f3 20       		.byte	32
 1187 01f4 82       		.byte	-126
 1188 01f5 40       		.byte	64
 1189 01f6 96       		.byte	-106
 1190 01f7 40       		.byte	64
 1191 01f8 9C       		.byte	-100
 1192 01f9 20       		.byte	32
 1193 01fa C4       		.byte	-60
 1194 01fb 04       		.byte	4
 1195 01fc 01       		.byte	1
 1196 01fd 0A       		.byte	10
 1197 01fe 10       		.byte	16
 1198 01ff 0A       		.byte	10
 1199              		.type	cy_cfg_addr_table.4916, %object
 1200              		.size	cy_cfg_addr_table.4916, 40
 1201              	cy_cfg_addr_table.4916:
ARM GAS  C:\Users\User\AppData\Local\Temp\cc5PRTKJ.s 			page 36


 1202 0200 01000F40 		.word	1074724865
 1203 0204 41300F40 		.word	1074737217
 1204 0208 2E310F40 		.word	1074737454
 1205 020c 1E320F40 		.word	1074737694
 1206 0210 44330F40 		.word	1074737988
 1207 0214 04400F40 		.word	1074741252
 1208 0218 0F410F40 		.word	1074741519
 1209 021c 04420F40 		.word	1074741764
 1210 0220 05430F40 		.word	1074742021
 1211 0224 02600F40 		.word	1074749442
 1212              		.type	BS_UDB_0_0_0_CONFIG_VAL.4928, %object
 1213              		.size	BS_UDB_0_0_0_CONFIG_VAL.4928, 128
 1214              	BS_UDB_0_0_0_CONFIG_VAL.4928:
 1215 0228 41       		.byte	65
 1216 0229 1A       		.byte	26
 1217 022a 00       		.byte	0
 1218 022b 00       		.byte	0
 1219 022c 12       		.byte	18
 1220 022d C1       		.byte	-63
 1221 022e 2C       		.byte	44
 1222 022f 38       		.byte	56
 1223 0230 00       		.byte	0
 1224 0231 9C       		.byte	-100
 1225 0232 00       		.byte	0
 1226 0233 03       		.byte	3
 1227 0234 00       		.byte	0
 1228 0235 00       		.byte	0
 1229 0236 41       		.byte	65
 1230 0237 00       		.byte	0
 1231 0238 06       		.byte	6
 1232 0239 18       		.byte	24
 1233 023a 38       		.byte	56
 1234 023b 02       		.byte	2
 1235 023c 00       		.byte	0
 1236 023d 02       		.byte	2
 1237 023e 00       		.byte	0
 1238 023f 18       		.byte	24
 1239 0240 2A       		.byte	42
 1240 0241 18       		.byte	24
 1241 0242 14       		.byte	20
 1242 0243 02       		.byte	2
 1243 0244 04       		.byte	4
 1244 0245 33       		.byte	51
 1245 0246 1A       		.byte	26
 1246 0247 44       		.byte	68
 1247 0248 41       		.byte	65
 1248 0249 82       		.byte	-126
 1249 024a 00       		.byte	0
 1250 024b 00       		.byte	0
 1251 024c 41       		.byte	65
 1252 024d 00       		.byte	0
 1253 024e 00       		.byte	0
 1254 024f 00       		.byte	0
 1255 0250 41       		.byte	65
 1256 0251 18       		.byte	24
 1257 0252 00       		.byte	0
 1258 0253 00       		.byte	0
ARM GAS  C:\Users\User\AppData\Local\Temp\cc5PRTKJ.s 			page 37


 1259 0254 00       		.byte	0
 1260 0255 1A       		.byte	26
 1261 0256 40       		.byte	64
 1262 0257 00       		.byte	0
 1263 0258 20       		.byte	32
 1264 0259 00       		.byte	0
 1265 025a 40       		.byte	64
 1266 025b 0F       		.byte	15
 1267 025c 01       		.byte	1
 1268 025d E0       		.byte	-32
 1269 025e 1E       		.byte	30
 1270 025f 13       		.byte	19
 1271 0260 00       		.byte	0
 1272 0261 00       		.byte	0
 1273 0262 80       		.byte	-128
 1274 0263 28       		.byte	40
 1275 0264 00       		.byte	0
 1276 0265 00       		.byte	0
 1277 0266 15       		.byte	21
 1278 0267 00       		.byte	0
 1279 0268 36       		.byte	54
 1280 0269 05       		.byte	5
 1281 026a 20       		.byte	32
 1282 026b 00       		.byte	0
 1283 026c 00       		.byte	0
 1284 026d CE       		.byte	-50
 1285 026e F0       		.byte	-16
 1286 026f D0       		.byte	-48
 1287 0270 2B       		.byte	43
 1288 0271 FF       		.byte	-1
 1289 0272 FF       		.byte	-1
 1290 0273 FF       		.byte	-1
 1291 0274 22       		.byte	34
 1292 0275 00       		.byte	0
 1293 0276 F0       		.byte	-16
 1294 0277 48       		.byte	72
 1295 0278 04       		.byte	4
 1296 0279 00       		.byte	0
 1297 027a 00       		.byte	0
 1298 027b 00       		.byte	0
 1299 027c 00       		.byte	0
 1300 027d 00       		.byte	0
 1301 027e 02       		.byte	2
 1302 027f 2C       		.byte	44
 1303 0280 04       		.byte	4
 1304 0281 04       		.byte	4
 1305 0282 04       		.byte	4
 1306 0283 04       		.byte	4
 1307 0284 11       		.byte	17
 1308 0285 11       		.byte	17
 1309 0286 00       		.byte	0
 1310 0287 01       		.byte	1
 1311 0288 00       		.byte	0
 1312 0289 00       		.byte	0
 1313 028a C0       		.byte	-64
 1314 028b 00       		.byte	0
 1315 028c 40       		.byte	64
ARM GAS  C:\Users\User\AppData\Local\Temp\cc5PRTKJ.s 			page 38


 1316 028d 02       		.byte	2
 1317 028e 10       		.byte	16
 1318 028f 12       		.byte	18
 1319 0290 C0       		.byte	-64
 1320 0291 02       		.byte	2
 1321 0292 00       		.byte	0
 1322 0293 12       		.byte	18
 1323 0294 40       		.byte	64
 1324 0295 02       		.byte	2
 1325 0296 40       		.byte	64
 1326 0297 02       		.byte	2
 1327 0298 00       		.byte	0
 1328 0299 00       		.byte	0
 1329 029a 00       		.byte	0
 1330 029b 00       		.byte	0
 1331 029c 00       		.byte	0
 1332 029d 00       		.byte	0
 1333 029e 00       		.byte	0
 1334 029f 00       		.byte	0
 1335 02a0 00       		.byte	0
 1336 02a1 00       		.byte	0
 1337 02a2 00       		.byte	0
 1338 02a3 00       		.byte	0
 1339 02a4 00       		.byte	0
 1340 02a5 00       		.byte	0
 1341 02a6 00       		.byte	0
 1342 02a7 00       		.byte	0
 1343              		.text
 1344              	.Letext0:
 1345              		.file 2 "c:\\program files (x86)\\cypress\\psoc creator\\4.2\\psoc creator\\import\\gnu\\arm\\5.4.
 1346              		.file 3 "Generated_Source\\PSoC4\\cytypes.h"
 1347              		.file 4 "Generated_Source\\PSoC4\\CyLFClk.h"
 1348              		.file 5 "Generated_Source\\PSoC4\\CyLib.h"