ARM GAS  C:\Users\User\AppData\Local\Temp\ccj2W26u.s 			page 1


   1              		.syntax unified
   2              		.cpu cortex-m0
   3              		.fpu softvfp
   4              		.eabi_attribute 20, 1
   5              		.eabi_attribute 21, 1
   6              		.eabi_attribute 23, 3
   7              		.eabi_attribute 24, 1
   8              		.eabi_attribute 25, 1
   9              		.eabi_attribute 26, 1
  10              		.eabi_attribute 30, 1
  11              		.eabi_attribute 34, 0
  12              		.eabi_attribute 18, 4
  13              		.thumb
  14              		.syntax unified
  15              		.file	"main.c"
  16              		.text
  17              	.Ltext0:
  18              		.cfi_sections	.debug_frame
  19              		.section	.text.isr_100Hz,"ax",%progbits
  20              		.align	2
  21              		.global	isr_100Hz
  22              		.code	16
  23              		.thumb_func
  24              		.type	isr_100Hz, %function
  25              	isr_100Hz:
  26              	.LFB39:
  27              		.file 1 "main.c"
   1:main.c        **** #include "project.h"
   2:main.c        **** #include "stdio.h"
   3:main.c        **** 
   4:main.c        **** #define STR_LEN     (80u)
   5:main.c        **** #define CHANNEL_0   (0u)
   6:main.c        **** 
   7:main.c        **** void out7seg(uint16);
   8:main.c        **** 
   9:main.c        **** uint16 indyk[4]         = {0x10FF,0x20FF,0x40FF,0x80FF};
  10:main.c        **** const uint8 KOD7[10]    = {0x03,0x9F,0x25,0x0D,0x99,0x49,0x41,0x1F,0x01,0x09};
  11:main.c        **** 
  12:main.c        **** uint32 conv_speed;
  13:main.c        **** uint16 ovflow = 0;
  14:main.c        **** void out7seg(uint16 data);
  15:main.c        **** CY_ISR_PROTO(isr_100Hz);
  16:main.c        **** CY_ISR_PROTO(isr_1);
  17:main.c        **** 
  18:main.c        **** uint16 temperature;
  19:main.c        **** 
  20:main.c        **** 
  21:main.c        **** float32 CountsTo_mVolts_Custom()
  22:main.c        **** {
  23:main.c        ****     return 2 * (float32)(2048 / 1024) * (float32)ADC_SAR_Seq_GetResult16(0);
  24:main.c        ****     
  25:main.c        **** }
  26:main.c        **** 
  27:main.c        **** 
  28:main.c        **** int main(void)
  29:main.c        **** {
  30:main.c        ****     char str[STR_LEN];
ARM GAS  C:\Users\User\AppData\Local\Temp\ccj2W26u.s 			page 2


  31:main.c        ****     uint16 adcResult;
  32:main.c        ****     float adcResult_V;
  33:main.c        ****     int16 adcResult_mV;
  34:main.c        ****     int32 adcResult_uV;
  35:main.c        ****     
  36:main.c        ****     CyGlobalIntEnable; /* Enable global interrupts. */
  37:main.c        ****     Conv_Counter_Start();
  38:main.c        ****     Second_PWM_Start();
  39:main.c        ****     SPIM_Start();
  40:main.c        ****     isr_100Hz_StartEx(isr_100Hz);
  41:main.c        ****     isr_1_StartEx(isr_1);
  42:main.c        ****     ADC_SAR_Seq_Start();
  43:main.c        ****     UART_Start();
  44:main.c        ****     UART_UartPutString("Init stage is done \r\n");
  45:main.c        **** 
  46:main.c        ****     UART_UartPutString("Starting ADC (FreeRunning mode only) \r\n"); 
  47:main.c        ****     ADC_SAR_Seq_StartConvert();
  48:main.c        ****     
  49:main.c        ****     for(;;)
  50:main.c        ****     {
  51:main.c        ****         CyDelay(1000u);
  52:main.c        ****         ADC_SAR_Seq_IsEndConversion(ADC_SAR_Seq_WAIT_FOR_RESULT);
  53:main.c        ****         
  54:main.c        ****         adcResult = ADC_SAR_Seq_GetResult16(CHANNEL_0);
  55:main.c        ****         adcResult_V = ADC_SAR_Seq_CountsTo_Volts(CHANNEL_0, adcResult);
  56:main.c        ****         adcResult_mV = ADC_SAR_Seq_CountsTo_mVolts(CHANNEL_0, adcResult);
  57:main.c        ****         adcResult_uV = ADC_SAR_Seq_CountsTo_uVolts(CHANNEL_0, adcResult);
  58:main.c        ****         
  59:main.c        ****         temperature = adcResult_mV / 10; // 10 mV per C
  60:main.c        ****         out7seg(temperature);
  61:main.c        ****         
  62:main.c        ****         /* Send data through UART */
  63:main.c        ****         sprintf(str, "Real: n = 0x%04x; V = %dmV  T = %d C  \r\n", (unsigned short)adcResult, adcRe
  64:main.c        ****         UART_UartPutString(str);
  65:main.c        ****         
  66:main.c        ****         sprintf(str, "Custom: n = 0x%04x; V = %dmV  T = %d C  \r\n", (unsigned short)adcResult, (in
  67:main.c        ****         UART_UartPutString(str);
  68:main.c        ****         
  69:main.c        ****         sprintf(str, "%lu\n", conv_speed);
  70:main.c        ****         UART_UartPutString(str);
  71:main.c        ****     }
  72:main.c        **** }
  73:main.c        **** 
  74:main.c        **** void out7seg(uint16 data)
  75:main.c        **** {
  76:main.c        ****     uint8 i;
  77:main.c        ****     
  78:main.c        ****     for (i = 0; i < 4; i++)
  79:main.c        ****     {
  80:main.c        ****         indyk[i] &= 0xFF00;
  81:main.c        ****         indyk[i] |= (uint16)KOD7[data % 10];
  82:main.c        ****         data /= 10;
  83:main.c        ****         if (data == 0) break;
  84:main.c        ****     }
  85:main.c        ****     
  86:main.c        ****     for (i++; i < 4; i++)
  87:main.c        ****     {
ARM GAS  C:\Users\User\AppData\Local\Temp\ccj2W26u.s 			page 3


  88:main.c        ****         indyk[i] |= 0x00FF;
  89:main.c        ****     }
  90:main.c        **** }
  91:main.c        **** 
  92:main.c        **** CY_ISR(isr_100Hz)
  93:main.c        **** {
  28              		.loc 1 93 0
  29              		.cfi_startproc
  30              		@ args = 0, pretend = 0, frame = 0
  31              		@ frame_needed = 0, uses_anonymous_args = 0
  32 0000 10B5     		push	{r4, lr}
  33              		.cfi_def_cfa_offset 8
  34              		.cfi_offset 4, -8
  35              		.cfi_offset 14, -4
  94:main.c        ****     static uint8 N_indyk = 0u;
  95:main.c        ****     
  96:main.c        ****     SPIM_WriteTxData(indyk[N_indyk]);
  36              		.loc 1 96 0
  37 0002 064C     		ldr	r4, .L2
  38 0004 2378     		ldrb	r3, [r4]
  39 0006 5B00     		lsls	r3, r3, #1
  40 0008 054A     		ldr	r2, .L2+4
  41 000a 985A     		ldrh	r0, [r3, r2]
  42 000c FFF7FEFF 		bl	SPIM_WriteTxData
  43              	.LVL0:
  97:main.c        ****     
  98:main.c        ****     N_indyk++;
  44              		.loc 1 98 0
  45 0010 2378     		ldrb	r3, [r4]
  46 0012 0133     		adds	r3, r3, #1
  99:main.c        ****     N_indyk &= 3;    
  47              		.loc 1 99 0
  48 0014 0322     		movs	r2, #3
  49 0016 1340     		ands	r3, r2
  50 0018 2370     		strb	r3, [r4]
 100:main.c        **** }
  51              		.loc 1 100 0
  52              		@ sp needed
  53 001a 10BD     		pop	{r4, pc}
  54              	.L3:
  55              		.align	2
  56              	.L2:
  57 001c 00000000 		.word	.LANCHOR1
  58 0020 00000000 		.word	.LANCHOR0
  59              		.cfi_endproc
  60              	.LFE39:
  61              		.size	isr_100Hz, .-isr_100Hz
  62              		.section	.text.isr_1,"ax",%progbits
  63              		.align	2
  64              		.global	isr_1
  65              		.code	16
  66              		.thumb_func
  67              		.type	isr_1, %function
  68              	isr_1:
  69              	.LFB40:
 101:main.c        **** 
 102:main.c        **** CY_ISR(isr_1)
ARM GAS  C:\Users\User\AppData\Local\Temp\ccj2W26u.s 			page 4


 103:main.c        **** {
  70              		.loc 1 103 0
  71              		.cfi_startproc
  72              		@ args = 0, pretend = 0, frame = 0
  73              		@ frame_needed = 0, uses_anonymous_args = 0
  74 0000 10B5     		push	{r4, lr}
  75              		.cfi_def_cfa_offset 8
  76              		.cfi_offset 4, -8
  77              		.cfi_offset 14, -4
 104:main.c        ****     if (0 != Conv_Counter_INTR_MASK_TC){
 105:main.c        ****         Conv_Counter_ClearInterrupt(Conv_Counter_INTR_MASK_TC);
  78              		.loc 1 105 0
  79 0002 0120     		movs	r0, #1
  80 0004 FFF7FEFF 		bl	Conv_Counter_ClearInterrupt
  81              	.LVL1:
 106:main.c        ****         ovflow++;
  82              		.loc 1 106 0
  83 0008 0A4C     		ldr	r4, .L5
  84 000a 6388     		ldrh	r3, [r4, #2]
  85 000c 0133     		adds	r3, r3, #1
  86 000e 6380     		strh	r3, [r4, #2]
 107:main.c        ****     }
 108:main.c        ****     if (0 != Conv_Counter_INTR_MASK_CC_MATCH){
 109:main.c        ****         conv_speed = Conv_Counter_ReadCounter() + ovflow * 65535;
  87              		.loc 1 109 0
  88 0010 FFF7FEFF 		bl	Conv_Counter_ReadCounter
  89              	.LVL2:
  90 0014 6288     		ldrh	r2, [r4, #2]
  91 0016 1304     		lsls	r3, r2, #16
  92 0018 9B1A     		subs	r3, r3, r2
  93 001a 1818     		adds	r0, r3, r0
  94 001c 064B     		ldr	r3, .L5+4
  95 001e 1860     		str	r0, [r3]
 110:main.c        ****         Conv_Counter_WriteCounter(0);
  96              		.loc 1 110 0
  97 0020 0020     		movs	r0, #0
  98 0022 FFF7FEFF 		bl	Conv_Counter_WriteCounter
  99              	.LVL3:
 111:main.c        ****         ovflow = 0;
 100              		.loc 1 111 0
 101 0026 0023     		movs	r3, #0
 102 0028 6380     		strh	r3, [r4, #2]
 112:main.c        ****         Conv_Counter_ClearInterrupt(Conv_Counter_INTR_MASK_CC_MATCH);
 103              		.loc 1 112 0
 104 002a 0220     		movs	r0, #2
 105 002c FFF7FEFF 		bl	Conv_Counter_ClearInterrupt
 106              	.LVL4:
 113:main.c        ****     }
 114:main.c        **** }
 107              		.loc 1 114 0
 108              		@ sp needed
 109 0030 10BD     		pop	{r4, pc}
 110              	.L6:
 111 0032 C046     		.align	2
 112              	.L5:
 113 0034 00000000 		.word	.LANCHOR1
 114 0038 00000000 		.word	conv_speed
ARM GAS  C:\Users\User\AppData\Local\Temp\ccj2W26u.s 			page 5


 115              		.cfi_endproc
 116              	.LFE40:
 117              		.size	isr_1, .-isr_1
 118              		.global	__aeabi_i2f
 119              		.global	__aeabi_fmul
 120              		.section	.text.CountsTo_mVolts_Custom,"ax",%progbits
 121              		.align	2
 122              		.global	CountsTo_mVolts_Custom
 123              		.code	16
 124              		.thumb_func
 125              		.type	CountsTo_mVolts_Custom, %function
 126              	CountsTo_mVolts_Custom:
 127              	.LFB36:
  22:main.c        ****     return 2 * (float32)(2048 / 1024) * (float32)ADC_SAR_Seq_GetResult16(0);
 128              		.loc 1 22 0
 129              		.cfi_startproc
 130              		@ args = 0, pretend = 0, frame = 0
 131              		@ frame_needed = 0, uses_anonymous_args = 0
 132 0000 10B5     		push	{r4, lr}
 133              		.cfi_def_cfa_offset 8
 134              		.cfi_offset 4, -8
 135              		.cfi_offset 14, -4
  23:main.c        ****     
 136              		.loc 1 23 0
 137 0002 0020     		movs	r0, #0
 138 0004 FFF7FEFF 		bl	ADC_SAR_Seq_GetResult16
 139              	.LVL5:
 140 0008 FFF7FEFF 		bl	__aeabi_i2f
 141              	.LVL6:
 142 000c 8121     		movs	r1, #129
 143 000e C905     		lsls	r1, r1, #23
 144 0010 FFF7FEFF 		bl	__aeabi_fmul
 145              	.LVL7:
  25:main.c        **** 
 146              		.loc 1 25 0
 147              		@ sp needed
 148 0014 10BD     		pop	{r4, pc}
 149              		.cfi_endproc
 150              	.LFE36:
 151              		.size	CountsTo_mVolts_Custom, .-CountsTo_mVolts_Custom
 152              		.global	__aeabi_uidivmod
 153              		.global	__aeabi_uidiv
 154 0016 C046     		.section	.text.out7seg,"ax",%progbits
 155              		.align	2
 156              		.global	out7seg
 157              		.code	16
 158              		.thumb_func
 159              		.type	out7seg, %function
 160              	out7seg:
 161              	.LFB38:
  75:main.c        ****     uint8 i;
 162              		.loc 1 75 0
 163              		.cfi_startproc
 164              		@ args = 0, pretend = 0, frame = 0
 165              		@ frame_needed = 0, uses_anonymous_args = 0
 166              	.LVL8:
 167 0000 F0B5     		push	{r4, r5, r6, r7, lr}
ARM GAS  C:\Users\User\AppData\Local\Temp\ccj2W26u.s 			page 6


 168              		.cfi_def_cfa_offset 20
 169              		.cfi_offset 4, -20
 170              		.cfi_offset 5, -16
 171              		.cfi_offset 6, -12
 172              		.cfi_offset 7, -8
 173              		.cfi_offset 14, -4
 174 0002 4746     		mov	r7, r8
 175 0004 80B4     		push	{r7}
 176              		.cfi_def_cfa_offset 24
 177              		.cfi_offset 8, -24
 178 0006 0500     		movs	r5, r0
 179              	.LVL9:
  78:main.c        ****     {
 180              		.loc 1 78 0
 181 0008 0024     		movs	r4, #0
 182 000a 1AE0     		b	.L9
 183              	.LVL10:
 184              	.L11:
  80:main.c        ****         indyk[i] |= (uint16)KOD7[data % 10];
 185              		.loc 1 80 0
 186 000c 164F     		ldr	r7, .L14
 187 000e 6300     		lsls	r3, r4, #1
 188 0010 9846     		mov	r8, r3
 189 0012 DE5B     		ldrh	r6, [r3, r7]
 190 0014 FF23     		movs	r3, #255
 191 0016 9E43     		bics	r6, r3
 192 0018 4346     		mov	r3, r8
 193 001a DE53     		strh	r6, [r3, r7]
  81:main.c        ****         data /= 10;
 194              		.loc 1 81 0
 195 001c 0A21     		movs	r1, #10
 196 001e 2800     		movs	r0, r5
 197 0020 FFF7FEFF 		bl	__aeabi_uidivmod
 198              	.LVL11:
 199 0024 89B2     		uxth	r1, r1
 200 0026 114B     		ldr	r3, .L14+4
 201 0028 5B5C     		ldrb	r3, [r3, r1]
 202 002a 1E43     		orrs	r6, r3
 203 002c 4346     		mov	r3, r8
 204 002e DE53     		strh	r6, [r3, r7]
  82:main.c        ****         if (data == 0) break;
 205              		.loc 1 82 0
 206 0030 0A21     		movs	r1, #10
 207 0032 2800     		movs	r0, r5
 208 0034 FFF7FEFF 		bl	__aeabi_uidiv
 209              	.LVL12:
 210 0038 85B2     		uxth	r5, r0
 211              	.LVL13:
  83:main.c        ****     }
 212              		.loc 1 83 0
 213 003a 002D     		cmp	r5, #0
 214 003c 03D0     		beq	.L10
  78:main.c        ****     {
 215              		.loc 1 78 0 discriminator 2
 216 003e 0134     		adds	r4, r4, #1
 217              	.LVL14:
 218 0040 E4B2     		uxtb	r4, r4
ARM GAS  C:\Users\User\AppData\Local\Temp\ccj2W26u.s 			page 7


 219              	.LVL15:
 220              	.L9:
  78:main.c        ****     {
 221              		.loc 1 78 0 is_stmt 0 discriminator 1
 222 0042 032C     		cmp	r4, #3
 223 0044 E2D9     		bls	.L11
 224              	.L10:
  86:main.c        ****     {
 225              		.loc 1 86 0 is_stmt 1
 226 0046 0134     		adds	r4, r4, #1
 227              	.LVL16:
 228 0048 E3B2     		uxtb	r3, r4
 229              	.LVL17:
 230 004a 07E0     		b	.L12
 231              	.L13:
  88:main.c        ****     }
 232              		.loc 1 88 0 discriminator 3
 233 004c 0649     		ldr	r1, .L14
 234 004e 5800     		lsls	r0, r3, #1
 235 0050 445A     		ldrh	r4, [r0, r1]
 236 0052 FF22     		movs	r2, #255
 237 0054 2243     		orrs	r2, r4
 238 0056 4252     		strh	r2, [r0, r1]
  86:main.c        ****     {
 239              		.loc 1 86 0 discriminator 3
 240 0058 0133     		adds	r3, r3, #1
 241              	.LVL18:
 242 005a DBB2     		uxtb	r3, r3
 243              	.LVL19:
 244              	.L12:
  86:main.c        ****     {
 245              		.loc 1 86 0 is_stmt 0 discriminator 1
 246 005c 032B     		cmp	r3, #3
 247 005e F5D9     		bls	.L13
  90:main.c        **** 
 248              		.loc 1 90 0 is_stmt 1
 249              		@ sp needed
 250              	.LVL20:
 251 0060 04BC     		pop	{r2}
 252 0062 9046     		mov	r8, r2
 253 0064 F0BD     		pop	{r4, r5, r6, r7, pc}
 254              	.L15:
 255 0066 C046     		.align	2
 256              	.L14:
 257 0068 00000000 		.word	.LANCHOR0
 258 006c 00000000 		.word	.LANCHOR2
 259              		.cfi_endproc
 260              	.LFE38:
 261              		.size	out7seg, .-out7seg
 262              		.global	__aeabi_idiv
 263              		.global	__aeabi_f2iz
 264              		.section	.text.main,"ax",%progbits
 265              		.align	2
 266              		.global	main
 267              		.code	16
 268              		.thumb_func
 269              		.type	main, %function
ARM GAS  C:\Users\User\AppData\Local\Temp\ccj2W26u.s 			page 8


 270              	main:
 271              	.LFB37:
  29:main.c        ****     char str[STR_LEN];
 272              		.loc 1 29 0
 273              		.cfi_startproc
 274              		@ args = 0, pretend = 0, frame = 80
 275              		@ frame_needed = 0, uses_anonymous_args = 0
 276 0000 70B5     		push	{r4, r5, r6, lr}
 277              		.cfi_def_cfa_offset 16
 278              		.cfi_offset 4, -16
 279              		.cfi_offset 5, -12
 280              		.cfi_offset 6, -8
 281              		.cfi_offset 14, -4
 282 0002 96B0     		sub	sp, sp, #88
 283              		.cfi_def_cfa_offset 104
  36:main.c        ****     Conv_Counter_Start();
 284              		.loc 1 36 0
 285              		.syntax divided
 286              	@ 36 "main.c" 1
 287 0004 62B6     		CPSIE   i
 288              	@ 0 "" 2
  37:main.c        ****     Second_PWM_Start();
 289              		.loc 1 37 0
 290              		.thumb
 291              		.syntax unified
 292 0006 FFF7FEFF 		bl	Conv_Counter_Start
 293              	.LVL21:
  38:main.c        ****     SPIM_Start();
 294              		.loc 1 38 0
 295 000a FFF7FEFF 		bl	Second_PWM_Start
 296              	.LVL22:
  39:main.c        ****     isr_100Hz_StartEx(isr_100Hz);
 297              		.loc 1 39 0
 298 000e FFF7FEFF 		bl	SPIM_Start
 299              	.LVL23:
  40:main.c        ****     isr_1_StartEx(isr_1);
 300              		.loc 1 40 0
 301 0012 2C48     		ldr	r0, .L18
 302 0014 FFF7FEFF 		bl	isr_100Hz_StartEx
 303              	.LVL24:
  41:main.c        ****     ADC_SAR_Seq_Start();
 304              		.loc 1 41 0
 305 0018 2B48     		ldr	r0, .L18+4
 306 001a FFF7FEFF 		bl	isr_1_StartEx
 307              	.LVL25:
  42:main.c        ****     UART_Start();
 308              		.loc 1 42 0
 309 001e FFF7FEFF 		bl	ADC_SAR_Seq_Start
 310              	.LVL26:
  43:main.c        ****     UART_UartPutString("Init stage is done \r\n");
 311              		.loc 1 43 0
 312 0022 FFF7FEFF 		bl	UART_Start
 313              	.LVL27:
  44:main.c        **** 
 314              		.loc 1 44 0
 315 0026 2948     		ldr	r0, .L18+8
 316 0028 FFF7FEFF 		bl	UART_UartPutString
ARM GAS  C:\Users\User\AppData\Local\Temp\ccj2W26u.s 			page 9


 317              	.LVL28:
  46:main.c        ****     ADC_SAR_Seq_StartConvert();
 318              		.loc 1 46 0
 319 002c 2848     		ldr	r0, .L18+12
 320 002e FFF7FEFF 		bl	UART_UartPutString
 321              	.LVL29:
  47:main.c        ****     
 322              		.loc 1 47 0
 323 0032 FFF7FEFF 		bl	ADC_SAR_Seq_StartConvert
 324              	.LVL30:
 325              	.L17:
  51:main.c        ****         ADC_SAR_Seq_IsEndConversion(ADC_SAR_Seq_WAIT_FOR_RESULT);
 326              		.loc 1 51 0 discriminator 1
 327 0036 FA20     		movs	r0, #250
 328 0038 8000     		lsls	r0, r0, #2
 329 003a FFF7FEFF 		bl	CyDelay
 330              	.LVL31:
  52:main.c        ****         
 331              		.loc 1 52 0 discriminator 1
 332 003e 0220     		movs	r0, #2
 333 0040 FFF7FEFF 		bl	ADC_SAR_Seq_IsEndConversion
 334              	.LVL32:
  54:main.c        ****         adcResult_V = ADC_SAR_Seq_CountsTo_Volts(CHANNEL_0, adcResult);
 335              		.loc 1 54 0 discriminator 1
 336 0044 0020     		movs	r0, #0
 337 0046 FFF7FEFF 		bl	ADC_SAR_Seq_GetResult16
 338              	.LVL33:
 339 004a 0600     		movs	r6, r0
 340 004c 84B2     		uxth	r4, r0
 341              	.LVL34:
  55:main.c        ****         adcResult_mV = ADC_SAR_Seq_CountsTo_mVolts(CHANNEL_0, adcResult);
 342              		.loc 1 55 0 discriminator 1
 343 004e 0100     		movs	r1, r0
 344 0050 0020     		movs	r0, #0
 345 0052 FFF7FEFF 		bl	ADC_SAR_Seq_CountsTo_Volts
 346              	.LVL35:
  56:main.c        ****         adcResult_uV = ADC_SAR_Seq_CountsTo_uVolts(CHANNEL_0, adcResult);
 347              		.loc 1 56 0 discriminator 1
 348 0056 3100     		movs	r1, r6
 349 0058 0020     		movs	r0, #0
 350 005a FFF7FEFF 		bl	ADC_SAR_Seq_CountsTo_mVolts
 351              	.LVL36:
 352 005e 0500     		movs	r5, r0
 353              	.LVL37:
  57:main.c        ****         
 354              		.loc 1 57 0 discriminator 1
 355 0060 3100     		movs	r1, r6
 356 0062 0020     		movs	r0, #0
 357 0064 FFF7FEFF 		bl	ADC_SAR_Seq_CountsTo_uVolts
 358              	.LVL38:
  59:main.c        ****         out7seg(temperature);
 359              		.loc 1 59 0 discriminator 1
 360 0068 0A21     		movs	r1, #10
 361 006a 2800     		movs	r0, r5
 362 006c FFF7FEFF 		bl	__aeabi_idiv
 363              	.LVL39:
 364 0070 80B2     		uxth	r0, r0
ARM GAS  C:\Users\User\AppData\Local\Temp\ccj2W26u.s 			page 10


 365 0072 184E     		ldr	r6, .L18+16
 366 0074 3080     		strh	r0, [r6]
  60:main.c        ****         
 367              		.loc 1 60 0 discriminator 1
 368 0076 FFF7FEFF 		bl	out7seg
 369              	.LVL40:
  63:main.c        ****         UART_UartPutString(str);
 370              		.loc 1 63 0 discriminator 1
 371 007a 3388     		ldrh	r3, [r6]
 372 007c 0093     		str	r3, [sp]
 373 007e 2B00     		movs	r3, r5
 374 0080 2200     		movs	r2, r4
 375 0082 1549     		ldr	r1, .L18+20
 376 0084 02A8     		add	r0, sp, #8
 377 0086 FFF7FEFF 		bl	sprintf
 378              	.LVL41:
  64:main.c        ****         
 379              		.loc 1 64 0 discriminator 1
 380 008a 02A8     		add	r0, sp, #8
 381 008c FFF7FEFF 		bl	UART_UartPutString
 382              	.LVL42:
  66:main.c        ****         UART_UartPutString(str);
 383              		.loc 1 66 0 discriminator 1
 384 0090 FFF7FEFF 		bl	CountsTo_mVolts_Custom
 385              	.LVL43:
 386 0094 FFF7FEFF 		bl	__aeabi_f2iz
 387              	.LVL44:
 388 0098 03B2     		sxth	r3, r0
 389 009a 3288     		ldrh	r2, [r6]
 390 009c 0092     		str	r2, [sp]
 391 009e 2200     		movs	r2, r4
 392 00a0 0E49     		ldr	r1, .L18+24
 393 00a2 02A8     		add	r0, sp, #8
 394 00a4 FFF7FEFF 		bl	sprintf
 395              	.LVL45:
  67:main.c        ****         
 396              		.loc 1 67 0 discriminator 1
 397 00a8 02A8     		add	r0, sp, #8
 398 00aa FFF7FEFF 		bl	UART_UartPutString
 399              	.LVL46:
  69:main.c        ****         UART_UartPutString(str);
 400              		.loc 1 69 0 discriminator 1
 401 00ae 0C4B     		ldr	r3, .L18+28
 402 00b0 1A68     		ldr	r2, [r3]
 403 00b2 0C49     		ldr	r1, .L18+32
 404 00b4 02A8     		add	r0, sp, #8
 405 00b6 FFF7FEFF 		bl	sprintf
 406              	.LVL47:
  70:main.c        ****     }
 407              		.loc 1 70 0 discriminator 1
 408 00ba 02A8     		add	r0, sp, #8
 409 00bc FFF7FEFF 		bl	UART_UartPutString
 410              	.LVL48:
 411 00c0 B9E7     		b	.L17
 412              	.L19:
 413 00c2 C046     		.align	2
 414              	.L18:
ARM GAS  C:\Users\User\AppData\Local\Temp\ccj2W26u.s 			page 11


 415 00c4 00000000 		.word	isr_100Hz
 416 00c8 00000000 		.word	isr_1
 417 00cc 00000000 		.word	.LC8
 418 00d0 18000000 		.word	.LC10
 419 00d4 00000000 		.word	temperature
 420 00d8 40000000 		.word	.LC13
 421 00dc 6C000000 		.word	.LC15
 422 00e0 00000000 		.word	conv_speed
 423 00e4 98000000 		.word	.LC18
 424              		.cfi_endproc
 425              	.LFE37:
 426              		.size	main, .-main
 427              		.comm	temperature,2,2
 428              		.global	ovflow
 429              		.comm	conv_speed,4,4
 430              		.global	KOD7
 431              		.global	indyk
 432              		.section	.rodata
 433              		.align	2
 434              		.set	.LANCHOR2,. + 0
 435              		.type	KOD7, %object
 436              		.size	KOD7, 10
 437              	KOD7:
 438 0000 03       		.byte	3
 439 0001 9F       		.byte	-97
 440 0002 25       		.byte	37
 441 0003 0D       		.byte	13
 442 0004 99       		.byte	-103
 443 0005 49       		.byte	73
 444 0006 41       		.byte	65
 445 0007 1F       		.byte	31
 446 0008 01       		.byte	1
 447 0009 09       		.byte	9
 448              		.data
 449              		.align	2
 450              		.set	.LANCHOR0,. + 0
 451              		.type	indyk, %object
 452              		.size	indyk, 8
 453              	indyk:
 454 0000 FF10     		.short	4351
 455 0002 FF20     		.short	8447
 456 0004 FF40     		.short	16639
 457 0006 FF80     		.short	-32513
 458              		.section	.rodata.str1.4,"aMS",%progbits,1
 459              		.align	2
 460              	.LC8:
 461 0000 496E6974 		.ascii	"Init stage is done \015\012\000"
 461      20737461 
 461      67652069 
 461      7320646F 
 461      6E65200D 
 462 0016 0000     		.space	2
 463              	.LC10:
 464 0018 53746172 		.ascii	"Starting ADC (FreeRunning mode only) \015\012\000"
 464      74696E67 
 464      20414443 
 464      20284672 
ARM GAS  C:\Users\User\AppData\Local\Temp\ccj2W26u.s 			page 12


 464      65655275 
 465              	.LC13:
 466 0040 5265616C 		.ascii	"Real: n = 0x%04x; V = %dmV  T = %d C  \015\012\000"
 466      3A206E20 
 466      3D203078 
 466      25303478 
 466      3B205620 
 467 0069 000000   		.space	3
 468              	.LC15:
 469 006c 43757374 		.ascii	"Custom: n = 0x%04x; V = %dmV  T = %d C  \015\012\000"
 469      6F6D3A20 
 469      6E203D20 
 469      30782530 
 469      34783B20 
 470 0097 00       		.space	1
 471              	.LC18:
 472 0098 256C750A 		.ascii	"%lu\012\000"
 472      00
 473              		.bss
 474              		.align	1
 475              		.set	.LANCHOR1,. + 0
 476              		.type	N_indyk.6877, %object
 477              		.size	N_indyk.6877, 1
 478              	N_indyk.6877:
 479 0000 00       		.space	1
 480 0001 00       		.space	1
 481              		.type	ovflow, %object
 482              		.size	ovflow, 2
 483              	ovflow:
 484 0002 0000     		.space	2
 485              		.text
 486              	.Letext0:
 487              		.file 2 "Generated_Source\\PSoC4/cytypes.h"
 488              		.file 3 "Generated_Source\\PSoC4/SPIM.h"
 489              		.file 4 "Generated_Source\\PSoC4/Conv_Counter.h"
 490              		.file 5 "Generated_Source\\PSoC4/ADC_SAR_Seq.h"
 491              		.file 6 "Generated_Source\\PSoC4/Second_PWM.h"
 492              		.file 7 "Generated_Source\\PSoC4/isr_100Hz.h"
 493              		.file 8 "Generated_Source\\PSoC4/isr_1.h"
 494              		.file 9 "Generated_Source\\PSoC4/UART.h"
 495              		.file 10 "Generated_Source\\PSoC4/UART_SPI_UART.h"
 496              		.file 11 "Generated_Source\\PSoC4/CyLib.h"
 497              		.file 12 "c:\\program files (x86)\\cypress\\psoc creator\\4.2\\psoc creator\\import\\gnu\\arm\\5.4